
rtarget:     file format elf64-x86-64


Disassembly of section .init:

0000000000400c48 <_init>:
  400c48:	48 83 ec 08          	sub    $0x8,%rsp
  400c4c:	48 8b 05 a5 53 20 00 	mov    0x2053a5(%rip),%rax        # 605ff8 <_DYNAMIC+0x1d0>
  400c53:	48 85 c0             	test   %rax,%rax
  400c56:	74 05                	je     400c5d <_init+0x15>
  400c58:	e8 43 02 00 00       	callq  400ea0 <socket@plt+0x10>
  400c5d:	48 83 c4 08          	add    $0x8,%rsp
  400c61:	c3                   	retq   

Disassembly of section .plt:

0000000000400c70 <strcasecmp@plt-0x10>:
  400c70:	ff 35 92 53 20 00    	pushq  0x205392(%rip)        # 606008 <_GLOBAL_OFFSET_TABLE_+0x8>
  400c76:	ff 25 94 53 20 00    	jmpq   *0x205394(%rip)        # 606010 <_GLOBAL_OFFSET_TABLE_+0x10>
  400c7c:	0f 1f 40 00          	nopl   0x0(%rax)

0000000000400c80 <strcasecmp@plt>:
  400c80:	ff 25 92 53 20 00    	jmpq   *0x205392(%rip)        # 606018 <_GLOBAL_OFFSET_TABLE_+0x18>
  400c86:	68 00 00 00 00       	pushq  $0x0
  400c8b:	e9 e0 ff ff ff       	jmpq   400c70 <_init+0x28>

0000000000400c90 <__errno_location@plt>:
  400c90:	ff 25 8a 53 20 00    	jmpq   *0x20538a(%rip)        # 606020 <_GLOBAL_OFFSET_TABLE_+0x20>
  400c96:	68 01 00 00 00       	pushq  $0x1
  400c9b:	e9 d0 ff ff ff       	jmpq   400c70 <_init+0x28>

0000000000400ca0 <srandom@plt>:
  400ca0:	ff 25 82 53 20 00    	jmpq   *0x205382(%rip)        # 606028 <_GLOBAL_OFFSET_TABLE_+0x28>
  400ca6:	68 02 00 00 00       	pushq  $0x2
  400cab:	e9 c0 ff ff ff       	jmpq   400c70 <_init+0x28>

0000000000400cb0 <strncmp@plt>:
  400cb0:	ff 25 7a 53 20 00    	jmpq   *0x20537a(%rip)        # 606030 <_GLOBAL_OFFSET_TABLE_+0x30>
  400cb6:	68 03 00 00 00       	pushq  $0x3
  400cbb:	e9 b0 ff ff ff       	jmpq   400c70 <_init+0x28>

0000000000400cc0 <strcpy@plt>:
  400cc0:	ff 25 72 53 20 00    	jmpq   *0x205372(%rip)        # 606038 <_GLOBAL_OFFSET_TABLE_+0x38>
  400cc6:	68 04 00 00 00       	pushq  $0x4
  400ccb:	e9 a0 ff ff ff       	jmpq   400c70 <_init+0x28>

0000000000400cd0 <puts@plt>:
  400cd0:	ff 25 6a 53 20 00    	jmpq   *0x20536a(%rip)        # 606040 <_GLOBAL_OFFSET_TABLE_+0x40>
  400cd6:	68 05 00 00 00       	pushq  $0x5
  400cdb:	e9 90 ff ff ff       	jmpq   400c70 <_init+0x28>

0000000000400ce0 <write@plt>:
  400ce0:	ff 25 62 53 20 00    	jmpq   *0x205362(%rip)        # 606048 <_GLOBAL_OFFSET_TABLE_+0x48>
  400ce6:	68 06 00 00 00       	pushq  $0x6
  400ceb:	e9 80 ff ff ff       	jmpq   400c70 <_init+0x28>

0000000000400cf0 <__stack_chk_fail@plt>:
  400cf0:	ff 25 5a 53 20 00    	jmpq   *0x20535a(%rip)        # 606050 <_GLOBAL_OFFSET_TABLE_+0x50>
  400cf6:	68 07 00 00 00       	pushq  $0x7
  400cfb:	e9 70 ff ff ff       	jmpq   400c70 <_init+0x28>

0000000000400d00 <mmap@plt>:
  400d00:	ff 25 52 53 20 00    	jmpq   *0x205352(%rip)        # 606058 <_GLOBAL_OFFSET_TABLE_+0x58>
  400d06:	68 08 00 00 00       	pushq  $0x8
  400d0b:	e9 60 ff ff ff       	jmpq   400c70 <_init+0x28>

0000000000400d10 <memset@plt>:
  400d10:	ff 25 4a 53 20 00    	jmpq   *0x20534a(%rip)        # 606060 <_GLOBAL_OFFSET_TABLE_+0x60>
  400d16:	68 09 00 00 00       	pushq  $0x9
  400d1b:	e9 50 ff ff ff       	jmpq   400c70 <_init+0x28>

0000000000400d20 <alarm@plt>:
  400d20:	ff 25 42 53 20 00    	jmpq   *0x205342(%rip)        # 606068 <_GLOBAL_OFFSET_TABLE_+0x68>
  400d26:	68 0a 00 00 00       	pushq  $0xa
  400d2b:	e9 40 ff ff ff       	jmpq   400c70 <_init+0x28>

0000000000400d30 <close@plt>:
  400d30:	ff 25 3a 53 20 00    	jmpq   *0x20533a(%rip)        # 606070 <_GLOBAL_OFFSET_TABLE_+0x70>
  400d36:	68 0b 00 00 00       	pushq  $0xb
  400d3b:	e9 30 ff ff ff       	jmpq   400c70 <_init+0x28>

0000000000400d40 <read@plt>:
  400d40:	ff 25 32 53 20 00    	jmpq   *0x205332(%rip)        # 606078 <_GLOBAL_OFFSET_TABLE_+0x78>
  400d46:	68 0c 00 00 00       	pushq  $0xc
  400d4b:	e9 20 ff ff ff       	jmpq   400c70 <_init+0x28>

0000000000400d50 <__libc_start_main@plt>:
  400d50:	ff 25 2a 53 20 00    	jmpq   *0x20532a(%rip)        # 606080 <_GLOBAL_OFFSET_TABLE_+0x80>
  400d56:	68 0d 00 00 00       	pushq  $0xd
  400d5b:	e9 10 ff ff ff       	jmpq   400c70 <_init+0x28>

0000000000400d60 <signal@plt>:
  400d60:	ff 25 22 53 20 00    	jmpq   *0x205322(%rip)        # 606088 <_GLOBAL_OFFSET_TABLE_+0x88>
  400d66:	68 0e 00 00 00       	pushq  $0xe
  400d6b:	e9 00 ff ff ff       	jmpq   400c70 <_init+0x28>

0000000000400d70 <gethostbyname@plt>:
  400d70:	ff 25 1a 53 20 00    	jmpq   *0x20531a(%rip)        # 606090 <_GLOBAL_OFFSET_TABLE_+0x90>
  400d76:	68 0f 00 00 00       	pushq  $0xf
  400d7b:	e9 f0 fe ff ff       	jmpq   400c70 <_init+0x28>

0000000000400d80 <__memmove_chk@plt>:
  400d80:	ff 25 12 53 20 00    	jmpq   *0x205312(%rip)        # 606098 <_GLOBAL_OFFSET_TABLE_+0x98>
  400d86:	68 10 00 00 00       	pushq  $0x10
  400d8b:	e9 e0 fe ff ff       	jmpq   400c70 <_init+0x28>

0000000000400d90 <strtol@plt>:
  400d90:	ff 25 0a 53 20 00    	jmpq   *0x20530a(%rip)        # 6060a0 <_GLOBAL_OFFSET_TABLE_+0xa0>
  400d96:	68 11 00 00 00       	pushq  $0x11
  400d9b:	e9 d0 fe ff ff       	jmpq   400c70 <_init+0x28>

0000000000400da0 <memcpy@plt>:
  400da0:	ff 25 02 53 20 00    	jmpq   *0x205302(%rip)        # 6060a8 <_GLOBAL_OFFSET_TABLE_+0xa8>
  400da6:	68 12 00 00 00       	pushq  $0x12
  400dab:	e9 c0 fe ff ff       	jmpq   400c70 <_init+0x28>

0000000000400db0 <time@plt>:
  400db0:	ff 25 fa 52 20 00    	jmpq   *0x2052fa(%rip)        # 6060b0 <_GLOBAL_OFFSET_TABLE_+0xb0>
  400db6:	68 13 00 00 00       	pushq  $0x13
  400dbb:	e9 b0 fe ff ff       	jmpq   400c70 <_init+0x28>

0000000000400dc0 <random@plt>:
  400dc0:	ff 25 f2 52 20 00    	jmpq   *0x2052f2(%rip)        # 6060b8 <_GLOBAL_OFFSET_TABLE_+0xb8>
  400dc6:	68 14 00 00 00       	pushq  $0x14
  400dcb:	e9 a0 fe ff ff       	jmpq   400c70 <_init+0x28>

0000000000400dd0 <_IO_getc@plt>:
  400dd0:	ff 25 ea 52 20 00    	jmpq   *0x2052ea(%rip)        # 6060c0 <_GLOBAL_OFFSET_TABLE_+0xc0>
  400dd6:	68 15 00 00 00       	pushq  $0x15
  400ddb:	e9 90 fe ff ff       	jmpq   400c70 <_init+0x28>

0000000000400de0 <__isoc99_sscanf@plt>:
  400de0:	ff 25 e2 52 20 00    	jmpq   *0x2052e2(%rip)        # 6060c8 <_GLOBAL_OFFSET_TABLE_+0xc8>
  400de6:	68 16 00 00 00       	pushq  $0x16
  400deb:	e9 80 fe ff ff       	jmpq   400c70 <_init+0x28>

0000000000400df0 <munmap@plt>:
  400df0:	ff 25 da 52 20 00    	jmpq   *0x2052da(%rip)        # 6060d0 <_GLOBAL_OFFSET_TABLE_+0xd0>
  400df6:	68 17 00 00 00       	pushq  $0x17
  400dfb:	e9 70 fe ff ff       	jmpq   400c70 <_init+0x28>

0000000000400e00 <__printf_chk@plt>:
  400e00:	ff 25 d2 52 20 00    	jmpq   *0x2052d2(%rip)        # 6060d8 <_GLOBAL_OFFSET_TABLE_+0xd8>
  400e06:	68 18 00 00 00       	pushq  $0x18
  400e0b:	e9 60 fe ff ff       	jmpq   400c70 <_init+0x28>

0000000000400e10 <fopen@plt>:
  400e10:	ff 25 ca 52 20 00    	jmpq   *0x2052ca(%rip)        # 6060e0 <_GLOBAL_OFFSET_TABLE_+0xe0>
  400e16:	68 19 00 00 00       	pushq  $0x19
  400e1b:	e9 50 fe ff ff       	jmpq   400c70 <_init+0x28>

0000000000400e20 <getopt@plt>:
  400e20:	ff 25 c2 52 20 00    	jmpq   *0x2052c2(%rip)        # 6060e8 <_GLOBAL_OFFSET_TABLE_+0xe8>
  400e26:	68 1a 00 00 00       	pushq  $0x1a
  400e2b:	e9 40 fe ff ff       	jmpq   400c70 <_init+0x28>

0000000000400e30 <strtoul@plt>:
  400e30:	ff 25 ba 52 20 00    	jmpq   *0x2052ba(%rip)        # 6060f0 <_GLOBAL_OFFSET_TABLE_+0xf0>
  400e36:	68 1b 00 00 00       	pushq  $0x1b
  400e3b:	e9 30 fe ff ff       	jmpq   400c70 <_init+0x28>

0000000000400e40 <gethostname@plt>:
  400e40:	ff 25 b2 52 20 00    	jmpq   *0x2052b2(%rip)        # 6060f8 <_GLOBAL_OFFSET_TABLE_+0xf8>
  400e46:	68 1c 00 00 00       	pushq  $0x1c
  400e4b:	e9 20 fe ff ff       	jmpq   400c70 <_init+0x28>

0000000000400e50 <exit@plt>:
  400e50:	ff 25 aa 52 20 00    	jmpq   *0x2052aa(%rip)        # 606100 <_GLOBAL_OFFSET_TABLE_+0x100>
  400e56:	68 1d 00 00 00       	pushq  $0x1d
  400e5b:	e9 10 fe ff ff       	jmpq   400c70 <_init+0x28>

0000000000400e60 <connect@plt>:
  400e60:	ff 25 a2 52 20 00    	jmpq   *0x2052a2(%rip)        # 606108 <_GLOBAL_OFFSET_TABLE_+0x108>
  400e66:	68 1e 00 00 00       	pushq  $0x1e
  400e6b:	e9 00 fe ff ff       	jmpq   400c70 <_init+0x28>

0000000000400e70 <__fprintf_chk@plt>:
  400e70:	ff 25 9a 52 20 00    	jmpq   *0x20529a(%rip)        # 606110 <_GLOBAL_OFFSET_TABLE_+0x110>
  400e76:	68 1f 00 00 00       	pushq  $0x1f
  400e7b:	e9 f0 fd ff ff       	jmpq   400c70 <_init+0x28>

0000000000400e80 <__sprintf_chk@plt>:
  400e80:	ff 25 92 52 20 00    	jmpq   *0x205292(%rip)        # 606118 <_GLOBAL_OFFSET_TABLE_+0x118>
  400e86:	68 20 00 00 00       	pushq  $0x20
  400e8b:	e9 e0 fd ff ff       	jmpq   400c70 <_init+0x28>

0000000000400e90 <socket@plt>:
  400e90:	ff 25 8a 52 20 00    	jmpq   *0x20528a(%rip)        # 606120 <_GLOBAL_OFFSET_TABLE_+0x120>
  400e96:	68 21 00 00 00       	pushq  $0x21
  400e9b:	e9 d0 fd ff ff       	jmpq   400c70 <_init+0x28>

Disassembly of section .plt.got:

0000000000400ea0 <.plt.got>:
  400ea0:	ff 25 52 51 20 00    	jmpq   *0x205152(%rip)        # 605ff8 <_DYNAMIC+0x1d0>
  400ea6:	66 90                	xchg   %ax,%ax

Disassembly of section .text:

0000000000400eb0 <_start>:
  400eb0:	31 ed                	xor    %ebp,%ebp
  400eb2:	49 89 d1             	mov    %rdx,%r9
  400eb5:	5e                   	pop    %rsi
  400eb6:	48 89 e2             	mov    %rsp,%rdx
  400eb9:	48 83 e4 f0          	and    $0xfffffffffffffff0,%rsp
  400ebd:	50                   	push   %rax
  400ebe:	54                   	push   %rsp
  400ebf:	49 c7 c0 40 30 40 00 	mov    $0x403040,%r8
  400ec6:	48 c7 c1 d0 2f 40 00 	mov    $0x402fd0,%rcx
  400ecd:	48 c7 c7 b5 11 40 00 	mov    $0x4011b5,%rdi
  400ed4:	e8 77 fe ff ff       	callq  400d50 <__libc_start_main@plt>
  400ed9:	f4                   	hlt    
  400eda:	66 0f 1f 44 00 00    	nopw   0x0(%rax,%rax,1)

0000000000400ee0 <deregister_tm_clones>:
  400ee0:	b8 87 6c 60 00       	mov    $0x606c87,%eax
  400ee5:	55                   	push   %rbp
  400ee6:	48 2d 80 6c 60 00    	sub    $0x606c80,%rax
  400eec:	48 83 f8 0e          	cmp    $0xe,%rax
  400ef0:	48 89 e5             	mov    %rsp,%rbp
  400ef3:	76 1b                	jbe    400f10 <deregister_tm_clones+0x30>
  400ef5:	b8 00 00 00 00       	mov    $0x0,%eax
  400efa:	48 85 c0             	test   %rax,%rax
  400efd:	74 11                	je     400f10 <deregister_tm_clones+0x30>
  400eff:	5d                   	pop    %rbp
  400f00:	bf 80 6c 60 00       	mov    $0x606c80,%edi
  400f05:	ff e0                	jmpq   *%rax
  400f07:	66 0f 1f 84 00 00 00 	nopw   0x0(%rax,%rax,1)
  400f0e:	00 00 
  400f10:	5d                   	pop    %rbp
  400f11:	c3                   	retq   
  400f12:	0f 1f 40 00          	nopl   0x0(%rax)
  400f16:	66 2e 0f 1f 84 00 00 	nopw   %cs:0x0(%rax,%rax,1)
  400f1d:	00 00 00 

0000000000400f20 <register_tm_clones>:
  400f20:	be 80 6c 60 00       	mov    $0x606c80,%esi
  400f25:	55                   	push   %rbp
  400f26:	48 81 ee 80 6c 60 00 	sub    $0x606c80,%rsi
  400f2d:	48 c1 fe 03          	sar    $0x3,%rsi
  400f31:	48 89 e5             	mov    %rsp,%rbp
  400f34:	48 89 f0             	mov    %rsi,%rax
  400f37:	48 c1 e8 3f          	shr    $0x3f,%rax
  400f3b:	48 01 c6             	add    %rax,%rsi
  400f3e:	48 d1 fe             	sar    %rsi
  400f41:	74 15                	je     400f58 <register_tm_clones+0x38>
  400f43:	b8 00 00 00 00       	mov    $0x0,%eax
  400f48:	48 85 c0             	test   %rax,%rax
  400f4b:	74 0b                	je     400f58 <register_tm_clones+0x38>
  400f4d:	5d                   	pop    %rbp
  400f4e:	bf 80 6c 60 00       	mov    $0x606c80,%edi
  400f53:	ff e0                	jmpq   *%rax
  400f55:	0f 1f 00             	nopl   (%rax)
  400f58:	5d                   	pop    %rbp
  400f59:	c3                   	retq   
  400f5a:	66 0f 1f 44 00 00    	nopw   0x0(%rax,%rax,1)

0000000000400f60 <__do_global_dtors_aux>:
  400f60:	80 3d 41 5d 20 00 00 	cmpb   $0x0,0x205d41(%rip)        # 606ca8 <completed.7585>
  400f67:	75 11                	jne    400f7a <__do_global_dtors_aux+0x1a>
  400f69:	55                   	push   %rbp
  400f6a:	48 89 e5             	mov    %rsp,%rbp
  400f6d:	e8 6e ff ff ff       	callq  400ee0 <deregister_tm_clones>
  400f72:	5d                   	pop    %rbp
  400f73:	c6 05 2e 5d 20 00 01 	movb   $0x1,0x205d2e(%rip)        # 606ca8 <completed.7585>
  400f7a:	f3 c3                	repz retq 
  400f7c:	0f 1f 40 00          	nopl   0x0(%rax)

0000000000400f80 <frame_dummy>:
  400f80:	bf 20 5e 60 00       	mov    $0x605e20,%edi
  400f85:	48 83 3f 00          	cmpq   $0x0,(%rdi)
  400f89:	75 05                	jne    400f90 <frame_dummy+0x10>
  400f8b:	eb 93                	jmp    400f20 <register_tm_clones>
  400f8d:	0f 1f 00             	nopl   (%rax)
  400f90:	b8 00 00 00 00       	mov    $0x0,%eax
  400f95:	48 85 c0             	test   %rax,%rax
  400f98:	74 f1                	je     400f8b <frame_dummy+0xb>
  400f9a:	55                   	push   %rbp
  400f9b:	48 89 e5             	mov    %rsp,%rbp
  400f9e:	ff d0                	callq  *%rax
  400fa0:	5d                   	pop    %rbp
  400fa1:	e9 7a ff ff ff       	jmpq   400f20 <register_tm_clones>

0000000000400fa6 <usage>:
  400fa6:	48 83 ec 08          	sub    $0x8,%rsp
  400faa:	48 89 fa             	mov    %rdi,%rdx
  400fad:	83 3d 34 5d 20 00 00 	cmpl   $0x0,0x205d34(%rip)        # 606ce8 <is_checker>
  400fb4:	74 3e                	je     400ff4 <usage+0x4e>
  400fb6:	be 58 30 40 00       	mov    $0x403058,%esi
  400fbb:	bf 01 00 00 00       	mov    $0x1,%edi
  400fc0:	b8 00 00 00 00       	mov    $0x0,%eax
  400fc5:	e8 36 fe ff ff       	callq  400e00 <__printf_chk@plt>
  400fca:	bf 90 30 40 00       	mov    $0x403090,%edi
  400fcf:	e8 fc fc ff ff       	callq  400cd0 <puts@plt>
  400fd4:	bf 08 32 40 00       	mov    $0x403208,%edi
  400fd9:	e8 f2 fc ff ff       	callq  400cd0 <puts@plt>
  400fde:	bf b8 30 40 00       	mov    $0x4030b8,%edi
  400fe3:	e8 e8 fc ff ff       	callq  400cd0 <puts@plt>
  400fe8:	bf 22 32 40 00       	mov    $0x403222,%edi
  400fed:	e8 de fc ff ff       	callq  400cd0 <puts@plt>
  400ff2:	eb 32                	jmp    401026 <usage+0x80>
  400ff4:	be 3e 32 40 00       	mov    $0x40323e,%esi
  400ff9:	bf 01 00 00 00       	mov    $0x1,%edi
  400ffe:	b8 00 00 00 00       	mov    $0x0,%eax
  401003:	e8 f8 fd ff ff       	callq  400e00 <__printf_chk@plt>
  401008:	bf e0 30 40 00       	mov    $0x4030e0,%edi
  40100d:	e8 be fc ff ff       	callq  400cd0 <puts@plt>
  401012:	bf 08 31 40 00       	mov    $0x403108,%edi
  401017:	e8 b4 fc ff ff       	callq  400cd0 <puts@plt>
  40101c:	bf 5c 32 40 00       	mov    $0x40325c,%edi
  401021:	e8 aa fc ff ff       	callq  400cd0 <puts@plt>
  401026:	bf 00 00 00 00       	mov    $0x0,%edi
  40102b:	e8 20 fe ff ff       	callq  400e50 <exit@plt>

0000000000401030 <initialize_target>:
  401030:	55                   	push   %rbp
  401031:	53                   	push   %rbx
  401032:	48 81 ec 18 21 00 00 	sub    $0x2118,%rsp
  401039:	89 f5                	mov    %esi,%ebp
  40103b:	64 48 8b 04 25 28 00 	mov    %fs:0x28,%rax
  401042:	00 00 
  401044:	48 89 84 24 08 21 00 	mov    %rax,0x2108(%rsp)
  40104b:	00 
  40104c:	31 c0                	xor    %eax,%eax
  40104e:	89 3d 84 5c 20 00    	mov    %edi,0x205c84(%rip)        # 606cd8 <check_level>
  401054:	8b 3d 0e 51 20 00    	mov    0x20510e(%rip),%edi        # 606168 <target_id>
  40105a:	e8 43 1f 00 00       	callq  402fa2 <gencookie>
  40105f:	89 05 7f 5c 20 00    	mov    %eax,0x205c7f(%rip)        # 606ce4 <cookie>
  401065:	89 c7                	mov    %eax,%edi
  401067:	e8 36 1f 00 00       	callq  402fa2 <gencookie>
  40106c:	89 05 6e 5c 20 00    	mov    %eax,0x205c6e(%rip)        # 606ce0 <authkey>
  401072:	8b 05 f0 50 20 00    	mov    0x2050f0(%rip),%eax        # 606168 <target_id>
  401078:	8d 78 01             	lea    0x1(%rax),%edi
  40107b:	e8 20 fc ff ff       	callq  400ca0 <srandom@plt>
  401080:	e8 3b fd ff ff       	callq  400dc0 <random@plt>
  401085:	89 c7                	mov    %eax,%edi
  401087:	e8 03 03 00 00       	callq  40138f <scramble>
  40108c:	89 c3                	mov    %eax,%ebx
  40108e:	85 ed                	test   %ebp,%ebp
  401090:	74 18                	je     4010aa <initialize_target+0x7a>
  401092:	bf 00 00 00 00       	mov    $0x0,%edi
  401097:	e8 14 fd ff ff       	callq  400db0 <time@plt>
  40109c:	89 c7                	mov    %eax,%edi
  40109e:	e8 fd fb ff ff       	callq  400ca0 <srandom@plt>
  4010a3:	e8 18 fd ff ff       	callq  400dc0 <random@plt>
  4010a8:	eb 05                	jmp    4010af <initialize_target+0x7f>
  4010aa:	b8 00 00 00 00       	mov    $0x0,%eax
  4010af:	01 c3                	add    %eax,%ebx
  4010b1:	0f b7 db             	movzwl %bx,%ebx
  4010b4:	8d 04 dd 00 01 00 00 	lea    0x100(,%rbx,8),%eax
  4010bb:	89 c0                	mov    %eax,%eax
  4010bd:	48 89 05 ac 5b 20 00 	mov    %rax,0x205bac(%rip)        # 606c70 <buf_offset>
  4010c4:	c6 05 3d 68 20 00 72 	movb   $0x72,0x20683d(%rip)        # 607908 <target_prefix>
  4010cb:	83 3d a6 5b 20 00 00 	cmpl   $0x0,0x205ba6(%rip)        # 606c78 <notify>
  4010d2:	0f 84 bb 00 00 00    	je     401193 <initialize_target+0x163>
  4010d8:	83 3d 09 5c 20 00 00 	cmpl   $0x0,0x205c09(%rip)        # 606ce8 <is_checker>
  4010df:	0f 85 ae 00 00 00    	jne    401193 <initialize_target+0x163>
  4010e5:	be 00 01 00 00       	mov    $0x100,%esi
  4010ea:	48 89 e7             	mov    %rsp,%rdi
  4010ed:	e8 4e fd ff ff       	callq  400e40 <gethostname@plt>
  4010f2:	85 c0                	test   %eax,%eax
  4010f4:	74 25                	je     40111b <initialize_target+0xeb>
  4010f6:	bf 38 31 40 00       	mov    $0x403138,%edi
  4010fb:	e8 d0 fb ff ff       	callq  400cd0 <puts@plt>
  401100:	bf 08 00 00 00       	mov    $0x8,%edi
  401105:	e8 46 fd ff ff       	callq  400e50 <exit@plt>
  40110a:	48 89 e6             	mov    %rsp,%rsi
  40110d:	e8 6e fb ff ff       	callq  400c80 <strcasecmp@plt>
  401112:	85 c0                	test   %eax,%eax
  401114:	74 21                	je     401137 <initialize_target+0x107>
  401116:	83 c3 01             	add    $0x1,%ebx
  401119:	eb 05                	jmp    401120 <initialize_target+0xf0>
  40111b:	bb 00 00 00 00       	mov    $0x0,%ebx
  401120:	48 63 c3             	movslq %ebx,%rax
  401123:	48 8b 3c c5 80 61 60 	mov    0x606180(,%rax,8),%rdi
  40112a:	00 
  40112b:	48 85 ff             	test   %rdi,%rdi
  40112e:	75 da                	jne    40110a <initialize_target+0xda>
  401130:	b8 00 00 00 00       	mov    $0x0,%eax
  401135:	eb 05                	jmp    40113c <initialize_target+0x10c>
  401137:	b8 01 00 00 00       	mov    $0x1,%eax
  40113c:	85 c0                	test   %eax,%eax
  40113e:	75 1c                	jne    40115c <initialize_target+0x12c>
  401140:	48 89 e2             	mov    %rsp,%rdx
  401143:	be 70 31 40 00       	mov    $0x403170,%esi
  401148:	bf 01 00 00 00       	mov    $0x1,%edi
  40114d:	e8 ae fc ff ff       	callq  400e00 <__printf_chk@plt>
  401152:	bf 08 00 00 00       	mov    $0x8,%edi
  401157:	e8 f4 fc ff ff       	callq  400e50 <exit@plt>
  40115c:	48 8d bc 24 00 01 00 	lea    0x100(%rsp),%rdi
  401163:	00 
  401164:	e8 a3 1b 00 00       	callq  402d0c <init_driver>
  401169:	85 c0                	test   %eax,%eax
  40116b:	79 26                	jns    401193 <initialize_target+0x163>
  40116d:	48 8d 94 24 00 01 00 	lea    0x100(%rsp),%rdx
  401174:	00 
  401175:	be b0 31 40 00       	mov    $0x4031b0,%esi
  40117a:	bf 01 00 00 00       	mov    $0x1,%edi
  40117f:	b8 00 00 00 00       	mov    $0x0,%eax
  401184:	e8 77 fc ff ff       	callq  400e00 <__printf_chk@plt>
  401189:	bf 08 00 00 00       	mov    $0x8,%edi
  40118e:	e8 bd fc ff ff       	callq  400e50 <exit@plt>
  401193:	48 8b 84 24 08 21 00 	mov    0x2108(%rsp),%rax
  40119a:	00 
  40119b:	64 48 33 04 25 28 00 	xor    %fs:0x28,%rax
  4011a2:	00 00 
  4011a4:	74 05                	je     4011ab <initialize_target+0x17b>
  4011a6:	e8 45 fb ff ff       	callq  400cf0 <__stack_chk_fail@plt>
  4011ab:	48 81 c4 18 21 00 00 	add    $0x2118,%rsp
  4011b2:	5b                   	pop    %rbx
  4011b3:	5d                   	pop    %rbp
  4011b4:	c3                   	retq   

00000000004011b5 <main>:
  4011b5:	41 56                	push   %r14
  4011b7:	41 55                	push   %r13
  4011b9:	41 54                	push   %r12
  4011bb:	55                   	push   %rbp
  4011bc:	53                   	push   %rbx
  4011bd:	41 89 fc             	mov    %edi,%r12d
  4011c0:	48 89 f3             	mov    %rsi,%rbx
  4011c3:	be 47 20 40 00       	mov    $0x402047,%esi
  4011c8:	bf 0b 00 00 00       	mov    $0xb,%edi
  4011cd:	e8 8e fb ff ff       	callq  400d60 <signal@plt>
  4011d2:	be f9 1f 40 00       	mov    $0x401ff9,%esi
  4011d7:	bf 07 00 00 00       	mov    $0x7,%edi
  4011dc:	e8 7f fb ff ff       	callq  400d60 <signal@plt>
  4011e1:	be 95 20 40 00       	mov    $0x402095,%esi
  4011e6:	bf 04 00 00 00       	mov    $0x4,%edi
  4011eb:	e8 70 fb ff ff       	callq  400d60 <signal@plt>
  4011f0:	83 3d f1 5a 20 00 00 	cmpl   $0x0,0x205af1(%rip)        # 606ce8 <is_checker>
  4011f7:	74 20                	je     401219 <main+0x64>
  4011f9:	be e3 20 40 00       	mov    $0x4020e3,%esi
  4011fe:	bf 0e 00 00 00       	mov    $0xe,%edi
  401203:	e8 58 fb ff ff       	callq  400d60 <signal@plt>
  401208:	bf 05 00 00 00       	mov    $0x5,%edi
  40120d:	e8 0e fb ff ff       	callq  400d20 <alarm@plt>
  401212:	bd 7a 32 40 00       	mov    $0x40327a,%ebp
  401217:	eb 05                	jmp    40121e <main+0x69>
  401219:	bd 75 32 40 00       	mov    $0x403275,%ebp
  40121e:	48 8b 05 5b 5a 20 00 	mov    0x205a5b(%rip),%rax        # 606c80 <__TMC_END__>
  401225:	48 89 05 a4 5a 20 00 	mov    %rax,0x205aa4(%rip)        # 606cd0 <infile>
  40122c:	41 bd 00 00 00 00    	mov    $0x0,%r13d
  401232:	41 be 00 00 00 00    	mov    $0x0,%r14d
  401238:	e9 c6 00 00 00       	jmpq   401303 <main+0x14e>
  40123d:	83 e8 61             	sub    $0x61,%eax
  401240:	3c 10                	cmp    $0x10,%al
  401242:	0f 87 9c 00 00 00    	ja     4012e4 <main+0x12f>
  401248:	0f b6 c0             	movzbl %al,%eax
  40124b:	ff 24 c5 c0 32 40 00 	jmpq   *0x4032c0(,%rax,8)
  401252:	48 8b 3b             	mov    (%rbx),%rdi
  401255:	e8 4c fd ff ff       	callq  400fa6 <usage>
  40125a:	be 6d 45 40 00       	mov    $0x40456d,%esi
  40125f:	48 8b 3d 22 5a 20 00 	mov    0x205a22(%rip),%rdi        # 606c88 <optarg@@GLIBC_2.2.5>
  401266:	e8 a5 fb ff ff       	callq  400e10 <fopen@plt>
  40126b:	48 89 05 5e 5a 20 00 	mov    %rax,0x205a5e(%rip)        # 606cd0 <infile>
  401272:	48 85 c0             	test   %rax,%rax
  401275:	0f 85 88 00 00 00    	jne    401303 <main+0x14e>
  40127b:	48 8b 0d 06 5a 20 00 	mov    0x205a06(%rip),%rcx        # 606c88 <optarg@@GLIBC_2.2.5>
  401282:	ba 82 32 40 00       	mov    $0x403282,%edx
  401287:	be 01 00 00 00       	mov    $0x1,%esi
  40128c:	48 8b 3d 0d 5a 20 00 	mov    0x205a0d(%rip),%rdi        # 606ca0 <stderr@@GLIBC_2.2.5>
  401293:	e8 d8 fb ff ff       	callq  400e70 <__fprintf_chk@plt>
  401298:	b8 01 00 00 00       	mov    $0x1,%eax
  40129d:	e9 e4 00 00 00       	jmpq   401386 <main+0x1d1>
  4012a2:	ba 10 00 00 00       	mov    $0x10,%edx
  4012a7:	be 00 00 00 00       	mov    $0x0,%esi
  4012ac:	48 8b 3d d5 59 20 00 	mov    0x2059d5(%rip),%rdi        # 606c88 <optarg@@GLIBC_2.2.5>
  4012b3:	e8 78 fb ff ff       	callq  400e30 <strtoul@plt>
  4012b8:	41 89 c6             	mov    %eax,%r14d
  4012bb:	eb 46                	jmp    401303 <main+0x14e>
  4012bd:	ba 0a 00 00 00       	mov    $0xa,%edx
  4012c2:	be 00 00 00 00       	mov    $0x0,%esi
  4012c7:	48 8b 3d ba 59 20 00 	mov    0x2059ba(%rip),%rdi        # 606c88 <optarg@@GLIBC_2.2.5>
  4012ce:	e8 bd fa ff ff       	callq  400d90 <strtol@plt>
  4012d3:	41 89 c5             	mov    %eax,%r13d
  4012d6:	eb 2b                	jmp    401303 <main+0x14e>
  4012d8:	c7 05 96 59 20 00 00 	movl   $0x0,0x205996(%rip)        # 606c78 <notify>
  4012df:	00 00 00 
  4012e2:	eb 1f                	jmp    401303 <main+0x14e>
  4012e4:	0f be d2             	movsbl %dl,%edx
  4012e7:	be 9f 32 40 00       	mov    $0x40329f,%esi
  4012ec:	bf 01 00 00 00       	mov    $0x1,%edi
  4012f1:	b8 00 00 00 00       	mov    $0x0,%eax
  4012f6:	e8 05 fb ff ff       	callq  400e00 <__printf_chk@plt>
  4012fb:	48 8b 3b             	mov    (%rbx),%rdi
  4012fe:	e8 a3 fc ff ff       	callq  400fa6 <usage>
  401303:	48 89 ea             	mov    %rbp,%rdx
  401306:	48 89 de             	mov    %rbx,%rsi
  401309:	44 89 e7             	mov    %r12d,%edi
  40130c:	e8 0f fb ff ff       	callq  400e20 <getopt@plt>
  401311:	89 c2                	mov    %eax,%edx
  401313:	3c ff                	cmp    $0xff,%al
  401315:	0f 85 22 ff ff ff    	jne    40123d <main+0x88>
  40131b:	be 01 00 00 00       	mov    $0x1,%esi
  401320:	44 89 ef             	mov    %r13d,%edi
  401323:	e8 08 fd ff ff       	callq  401030 <initialize_target>
  401328:	83 3d b9 59 20 00 00 	cmpl   $0x0,0x2059b9(%rip)        # 606ce8 <is_checker>
  40132f:	74 2a                	je     40135b <main+0x1a6>
  401331:	44 3b 35 a8 59 20 00 	cmp    0x2059a8(%rip),%r14d        # 606ce0 <authkey>
  401338:	74 21                	je     40135b <main+0x1a6>
  40133a:	44 89 f2             	mov    %r14d,%edx
  40133d:	be d8 31 40 00       	mov    $0x4031d8,%esi
  401342:	bf 01 00 00 00       	mov    $0x1,%edi
  401347:	b8 00 00 00 00       	mov    $0x0,%eax
  40134c:	e8 af fa ff ff       	callq  400e00 <__printf_chk@plt>
  401351:	b8 00 00 00 00       	mov    $0x0,%eax
  401356:	e8 3a 09 00 00       	callq  401c95 <check_fail>
  40135b:	8b 15 83 59 20 00    	mov    0x205983(%rip),%edx        # 606ce4 <cookie>
  401361:	be b2 32 40 00       	mov    $0x4032b2,%esi
  401366:	bf 01 00 00 00       	mov    $0x1,%edi
  40136b:	b8 00 00 00 00       	mov    $0x0,%eax
  401370:	e8 8b fa ff ff       	callq  400e00 <__printf_chk@plt>
  401375:	48 8b 3d f4 58 20 00 	mov    0x2058f4(%rip),%rdi        # 606c70 <buf_offset>
  40137c:	e8 b5 0d 00 00       	callq  402136 <launch>
  401381:	b8 00 00 00 00       	mov    $0x0,%eax
  401386:	5b                   	pop    %rbx
  401387:	5d                   	pop    %rbp
  401388:	41 5c                	pop    %r12
  40138a:	41 5d                	pop    %r13
  40138c:	41 5e                	pop    %r14
  40138e:	c3                   	retq   

000000000040138f <scramble>:
  40138f:	48 83 ec 38          	sub    $0x38,%rsp
  401393:	64 48 8b 04 25 28 00 	mov    %fs:0x28,%rax
  40139a:	00 00 
  40139c:	48 89 44 24 28       	mov    %rax,0x28(%rsp)
  4013a1:	31 c0                	xor    %eax,%eax
  4013a3:	eb 10                	jmp    4013b5 <scramble+0x26>
  4013a5:	69 d0 98 f3 00 00    	imul   $0xf398,%eax,%edx
  4013ab:	01 fa                	add    %edi,%edx
  4013ad:	89 c1                	mov    %eax,%ecx
  4013af:	89 14 8c             	mov    %edx,(%rsp,%rcx,4)
  4013b2:	83 c0 01             	add    $0x1,%eax
  4013b5:	83 f8 09             	cmp    $0x9,%eax
  4013b8:	76 eb                	jbe    4013a5 <scramble+0x16>
  4013ba:	8b 44 24 14          	mov    0x14(%rsp),%eax
  4013be:	69 c0 26 02 00 00    	imul   $0x226,%eax,%eax
  4013c4:	89 44 24 14          	mov    %eax,0x14(%rsp)
  4013c8:	8b 44 24 1c          	mov    0x1c(%rsp),%eax
  4013cc:	69 c0 02 2d 00 00    	imul   $0x2d02,%eax,%eax
  4013d2:	89 44 24 1c          	mov    %eax,0x1c(%rsp)
  4013d6:	8b 44 24 04          	mov    0x4(%rsp),%eax
  4013da:	69 c0 83 e8 00 00    	imul   $0xe883,%eax,%eax
  4013e0:	89 44 24 04          	mov    %eax,0x4(%rsp)
  4013e4:	8b 44 24 1c          	mov    0x1c(%rsp),%eax
  4013e8:	69 c0 8b 26 00 00    	imul   $0x268b,%eax,%eax
  4013ee:	89 44 24 1c          	mov    %eax,0x1c(%rsp)
  4013f2:	8b 44 24 0c          	mov    0xc(%rsp),%eax
  4013f6:	69 c0 f7 e5 00 00    	imul   $0xe5f7,%eax,%eax
  4013fc:	89 44 24 0c          	mov    %eax,0xc(%rsp)
  401400:	8b 44 24 0c          	mov    0xc(%rsp),%eax
  401404:	69 c0 20 7c 00 00    	imul   $0x7c20,%eax,%eax
  40140a:	89 44 24 0c          	mov    %eax,0xc(%rsp)
  40140e:	8b 44 24 04          	mov    0x4(%rsp),%eax
  401412:	69 c0 48 98 00 00    	imul   $0x9848,%eax,%eax
  401418:	89 44 24 04          	mov    %eax,0x4(%rsp)
  40141c:	8b 44 24 20          	mov    0x20(%rsp),%eax
  401420:	69 c0 c0 36 00 00    	imul   $0x36c0,%eax,%eax
  401426:	89 44 24 20          	mov    %eax,0x20(%rsp)
  40142a:	8b 44 24 20          	mov    0x20(%rsp),%eax
  40142e:	69 c0 f7 66 00 00    	imul   $0x66f7,%eax,%eax
  401434:	89 44 24 20          	mov    %eax,0x20(%rsp)
  401438:	8b 44 24 10          	mov    0x10(%rsp),%eax
  40143c:	69 c0 14 06 00 00    	imul   $0x614,%eax,%eax
  401442:	89 44 24 10          	mov    %eax,0x10(%rsp)
  401446:	8b 44 24 04          	mov    0x4(%rsp),%eax
  40144a:	69 c0 ab e1 00 00    	imul   $0xe1ab,%eax,%eax
  401450:	89 44 24 04          	mov    %eax,0x4(%rsp)
  401454:	8b 44 24 20          	mov    0x20(%rsp),%eax
  401458:	69 c0 62 c1 00 00    	imul   $0xc162,%eax,%eax
  40145e:	89 44 24 20          	mov    %eax,0x20(%rsp)
  401462:	8b 44 24 0c          	mov    0xc(%rsp),%eax
  401466:	69 c0 f8 c0 00 00    	imul   $0xc0f8,%eax,%eax
  40146c:	89 44 24 0c          	mov    %eax,0xc(%rsp)
  401470:	8b 44 24 18          	mov    0x18(%rsp),%eax
  401474:	69 c0 98 ff 00 00    	imul   $0xff98,%eax,%eax
  40147a:	89 44 24 18          	mov    %eax,0x18(%rsp)
  40147e:	8b 44 24 0c          	mov    0xc(%rsp),%eax
  401482:	69 c0 7d 90 00 00    	imul   $0x907d,%eax,%eax
  401488:	89 44 24 0c          	mov    %eax,0xc(%rsp)
  40148c:	8b 44 24 20          	mov    0x20(%rsp),%eax
  401490:	69 c0 0f 45 00 00    	imul   $0x450f,%eax,%eax
  401496:	89 44 24 20          	mov    %eax,0x20(%rsp)
  40149a:	8b 44 24 14          	mov    0x14(%rsp),%eax
  40149e:	69 c0 3c 27 00 00    	imul   $0x273c,%eax,%eax
  4014a4:	89 44 24 14          	mov    %eax,0x14(%rsp)
  4014a8:	8b 44 24 14          	mov    0x14(%rsp),%eax
  4014ac:	69 c0 6d 92 00 00    	imul   $0x926d,%eax,%eax
  4014b2:	89 44 24 14          	mov    %eax,0x14(%rsp)
  4014b6:	8b 44 24 08          	mov    0x8(%rsp),%eax
  4014ba:	69 c0 e9 a7 00 00    	imul   $0xa7e9,%eax,%eax
  4014c0:	89 44 24 08          	mov    %eax,0x8(%rsp)
  4014c4:	8b 44 24 08          	mov    0x8(%rsp),%eax
  4014c8:	69 c0 83 41 00 00    	imul   $0x4183,%eax,%eax
  4014ce:	89 44 24 08          	mov    %eax,0x8(%rsp)
  4014d2:	8b 44 24 0c          	mov    0xc(%rsp),%eax
  4014d6:	69 c0 ad 0f 00 00    	imul   $0xfad,%eax,%eax
  4014dc:	89 44 24 0c          	mov    %eax,0xc(%rsp)
  4014e0:	8b 44 24 04          	mov    0x4(%rsp),%eax
  4014e4:	69 c0 6d 91 00 00    	imul   $0x916d,%eax,%eax
  4014ea:	89 44 24 04          	mov    %eax,0x4(%rsp)
  4014ee:	8b 44 24 20          	mov    0x20(%rsp),%eax
  4014f2:	69 c0 30 f6 00 00    	imul   $0xf630,%eax,%eax
  4014f8:	89 44 24 20          	mov    %eax,0x20(%rsp)
  4014fc:	8b 44 24 1c          	mov    0x1c(%rsp),%eax
  401500:	69 c0 2c 65 00 00    	imul   $0x652c,%eax,%eax
  401506:	89 44 24 1c          	mov    %eax,0x1c(%rsp)
  40150a:	8b 44 24 20          	mov    0x20(%rsp),%eax
  40150e:	69 c0 ea 2d 00 00    	imul   $0x2dea,%eax,%eax
  401514:	89 44 24 20          	mov    %eax,0x20(%rsp)
  401518:	8b 44 24 14          	mov    0x14(%rsp),%eax
  40151c:	69 c0 5f 38 00 00    	imul   $0x385f,%eax,%eax
  401522:	89 44 24 14          	mov    %eax,0x14(%rsp)
  401526:	8b 44 24 1c          	mov    0x1c(%rsp),%eax
  40152a:	69 c0 95 d1 00 00    	imul   $0xd195,%eax,%eax
  401530:	89 44 24 1c          	mov    %eax,0x1c(%rsp)
  401534:	8b 44 24 0c          	mov    0xc(%rsp),%eax
  401538:	69 c0 a1 14 00 00    	imul   $0x14a1,%eax,%eax
  40153e:	89 44 24 0c          	mov    %eax,0xc(%rsp)
  401542:	8b 44 24 08          	mov    0x8(%rsp),%eax
  401546:	69 c0 bc 65 00 00    	imul   $0x65bc,%eax,%eax
  40154c:	89 44 24 08          	mov    %eax,0x8(%rsp)
  401550:	8b 04 24             	mov    (%rsp),%eax
  401553:	69 c0 04 e4 00 00    	imul   $0xe404,%eax,%eax
  401559:	89 04 24             	mov    %eax,(%rsp)
  40155c:	8b 44 24 1c          	mov    0x1c(%rsp),%eax
  401560:	69 c0 41 90 00 00    	imul   $0x9041,%eax,%eax
  401566:	89 44 24 1c          	mov    %eax,0x1c(%rsp)
  40156a:	8b 44 24 20          	mov    0x20(%rsp),%eax
  40156e:	69 c0 de 88 00 00    	imul   $0x88de,%eax,%eax
  401574:	89 44 24 20          	mov    %eax,0x20(%rsp)
  401578:	8b 44 24 0c          	mov    0xc(%rsp),%eax
  40157c:	69 c0 24 9b 00 00    	imul   $0x9b24,%eax,%eax
  401582:	89 44 24 0c          	mov    %eax,0xc(%rsp)
  401586:	8b 44 24 14          	mov    0x14(%rsp),%eax
  40158a:	69 c0 3d c7 00 00    	imul   $0xc73d,%eax,%eax
  401590:	89 44 24 14          	mov    %eax,0x14(%rsp)
  401594:	8b 04 24             	mov    (%rsp),%eax
  401597:	69 c0 43 d4 00 00    	imul   $0xd443,%eax,%eax
  40159d:	89 04 24             	mov    %eax,(%rsp)
  4015a0:	8b 44 24 08          	mov    0x8(%rsp),%eax
  4015a4:	69 c0 ed d0 00 00    	imul   $0xd0ed,%eax,%eax
  4015aa:	89 44 24 08          	mov    %eax,0x8(%rsp)
  4015ae:	8b 44 24 1c          	mov    0x1c(%rsp),%eax
  4015b2:	69 c0 63 c6 00 00    	imul   $0xc663,%eax,%eax
  4015b8:	89 44 24 1c          	mov    %eax,0x1c(%rsp)
  4015bc:	8b 44 24 08          	mov    0x8(%rsp),%eax
  4015c0:	69 c0 e6 8b 00 00    	imul   $0x8be6,%eax,%eax
  4015c6:	89 44 24 08          	mov    %eax,0x8(%rsp)
  4015ca:	8b 44 24 18          	mov    0x18(%rsp),%eax
  4015ce:	69 c0 89 2a 00 00    	imul   $0x2a89,%eax,%eax
  4015d4:	89 44 24 18          	mov    %eax,0x18(%rsp)
  4015d8:	8b 44 24 0c          	mov    0xc(%rsp),%eax
  4015dc:	69 c0 bb 19 00 00    	imul   $0x19bb,%eax,%eax
  4015e2:	89 44 24 0c          	mov    %eax,0xc(%rsp)
  4015e6:	8b 44 24 1c          	mov    0x1c(%rsp),%eax
  4015ea:	69 c0 52 5c 00 00    	imul   $0x5c52,%eax,%eax
  4015f0:	89 44 24 1c          	mov    %eax,0x1c(%rsp)
  4015f4:	8b 44 24 1c          	mov    0x1c(%rsp),%eax
  4015f8:	69 c0 08 68 00 00    	imul   $0x6808,%eax,%eax
  4015fe:	89 44 24 1c          	mov    %eax,0x1c(%rsp)
  401602:	8b 44 24 0c          	mov    0xc(%rsp),%eax
  401606:	69 c0 dc 4b 00 00    	imul   $0x4bdc,%eax,%eax
  40160c:	89 44 24 0c          	mov    %eax,0xc(%rsp)
  401610:	8b 44 24 1c          	mov    0x1c(%rsp),%eax
  401614:	69 c0 75 c0 00 00    	imul   $0xc075,%eax,%eax
  40161a:	89 44 24 1c          	mov    %eax,0x1c(%rsp)
  40161e:	8b 44 24 04          	mov    0x4(%rsp),%eax
  401622:	69 c0 e3 90 00 00    	imul   $0x90e3,%eax,%eax
  401628:	89 44 24 04          	mov    %eax,0x4(%rsp)
  40162c:	8b 44 24 1c          	mov    0x1c(%rsp),%eax
  401630:	69 c0 d3 a7 00 00    	imul   $0xa7d3,%eax,%eax
  401636:	89 44 24 1c          	mov    %eax,0x1c(%rsp)
  40163a:	8b 44 24 1c          	mov    0x1c(%rsp),%eax
  40163e:	69 c0 8c cd 00 00    	imul   $0xcd8c,%eax,%eax
  401644:	89 44 24 1c          	mov    %eax,0x1c(%rsp)
  401648:	8b 44 24 18          	mov    0x18(%rsp),%eax
  40164c:	69 c0 a3 d8 00 00    	imul   $0xd8a3,%eax,%eax
  401652:	89 44 24 18          	mov    %eax,0x18(%rsp)
  401656:	8b 44 24 08          	mov    0x8(%rsp),%eax
  40165a:	69 c0 fc 4b 00 00    	imul   $0x4bfc,%eax,%eax
  401660:	89 44 24 08          	mov    %eax,0x8(%rsp)
  401664:	8b 44 24 24          	mov    0x24(%rsp),%eax
  401668:	69 c0 be ab 00 00    	imul   $0xabbe,%eax,%eax
  40166e:	89 44 24 24          	mov    %eax,0x24(%rsp)
  401672:	8b 44 24 04          	mov    0x4(%rsp),%eax
  401676:	69 c0 a1 a8 00 00    	imul   $0xa8a1,%eax,%eax
  40167c:	89 44 24 04          	mov    %eax,0x4(%rsp)
  401680:	8b 44 24 20          	mov    0x20(%rsp),%eax
  401684:	69 c0 2f 04 00 00    	imul   $0x42f,%eax,%eax
  40168a:	89 44 24 20          	mov    %eax,0x20(%rsp)
  40168e:	8b 44 24 1c          	mov    0x1c(%rsp),%eax
  401692:	69 c0 06 df 00 00    	imul   $0xdf06,%eax,%eax
  401698:	89 44 24 1c          	mov    %eax,0x1c(%rsp)
  40169c:	8b 44 24 14          	mov    0x14(%rsp),%eax
  4016a0:	69 c0 98 2b 00 00    	imul   $0x2b98,%eax,%eax
  4016a6:	89 44 24 14          	mov    %eax,0x14(%rsp)
  4016aa:	8b 44 24 10          	mov    0x10(%rsp),%eax
  4016ae:	69 c0 27 81 00 00    	imul   $0x8127,%eax,%eax
  4016b4:	89 44 24 10          	mov    %eax,0x10(%rsp)
  4016b8:	8b 44 24 24          	mov    0x24(%rsp),%eax
  4016bc:	69 c0 02 62 00 00    	imul   $0x6202,%eax,%eax
  4016c2:	89 44 24 24          	mov    %eax,0x24(%rsp)
  4016c6:	8b 04 24             	mov    (%rsp),%eax
  4016c9:	69 c0 6f 97 00 00    	imul   $0x976f,%eax,%eax
  4016cf:	89 04 24             	mov    %eax,(%rsp)
  4016d2:	8b 44 24 14          	mov    0x14(%rsp),%eax
  4016d6:	69 c0 61 0b 00 00    	imul   $0xb61,%eax,%eax
  4016dc:	89 44 24 14          	mov    %eax,0x14(%rsp)
  4016e0:	8b 44 24 20          	mov    0x20(%rsp),%eax
  4016e4:	69 c0 b4 46 00 00    	imul   $0x46b4,%eax,%eax
  4016ea:	89 44 24 20          	mov    %eax,0x20(%rsp)
  4016ee:	8b 44 24 0c          	mov    0xc(%rsp),%eax
  4016f2:	69 c0 e4 94 00 00    	imul   $0x94e4,%eax,%eax
  4016f8:	89 44 24 0c          	mov    %eax,0xc(%rsp)
  4016fc:	8b 44 24 04          	mov    0x4(%rsp),%eax
  401700:	69 c0 4f 70 00 00    	imul   $0x704f,%eax,%eax
  401706:	89 44 24 04          	mov    %eax,0x4(%rsp)
  40170a:	8b 44 24 0c          	mov    0xc(%rsp),%eax
  40170e:	69 c0 bc f8 00 00    	imul   $0xf8bc,%eax,%eax
  401714:	89 44 24 0c          	mov    %eax,0xc(%rsp)
  401718:	8b 44 24 1c          	mov    0x1c(%rsp),%eax
  40171c:	69 c0 68 6d 00 00    	imul   $0x6d68,%eax,%eax
  401722:	89 44 24 1c          	mov    %eax,0x1c(%rsp)
  401726:	8b 04 24             	mov    (%rsp),%eax
  401729:	69 c0 8b a6 00 00    	imul   $0xa68b,%eax,%eax
  40172f:	89 04 24             	mov    %eax,(%rsp)
  401732:	8b 44 24 0c          	mov    0xc(%rsp),%eax
  401736:	69 c0 40 71 00 00    	imul   $0x7140,%eax,%eax
  40173c:	89 44 24 0c          	mov    %eax,0xc(%rsp)
  401740:	8b 44 24 14          	mov    0x14(%rsp),%eax
  401744:	69 c0 a3 d9 00 00    	imul   $0xd9a3,%eax,%eax
  40174a:	89 44 24 14          	mov    %eax,0x14(%rsp)
  40174e:	8b 44 24 0c          	mov    0xc(%rsp),%eax
  401752:	69 c0 f5 ce 00 00    	imul   $0xcef5,%eax,%eax
  401758:	89 44 24 0c          	mov    %eax,0xc(%rsp)
  40175c:	8b 44 24 14          	mov    0x14(%rsp),%eax
  401760:	69 c0 e5 88 00 00    	imul   $0x88e5,%eax,%eax
  401766:	89 44 24 14          	mov    %eax,0x14(%rsp)
  40176a:	8b 44 24 20          	mov    0x20(%rsp),%eax
  40176e:	69 c0 e8 6d 00 00    	imul   $0x6de8,%eax,%eax
  401774:	89 44 24 20          	mov    %eax,0x20(%rsp)
  401778:	8b 44 24 18          	mov    0x18(%rsp),%eax
  40177c:	69 c0 8b b7 00 00    	imul   $0xb78b,%eax,%eax
  401782:	89 44 24 18          	mov    %eax,0x18(%rsp)
  401786:	8b 44 24 04          	mov    0x4(%rsp),%eax
  40178a:	69 c0 d2 f9 00 00    	imul   $0xf9d2,%eax,%eax
  401790:	89 44 24 04          	mov    %eax,0x4(%rsp)
  401794:	8b 44 24 14          	mov    0x14(%rsp),%eax
  401798:	69 c0 89 cc 00 00    	imul   $0xcc89,%eax,%eax
  40179e:	89 44 24 14          	mov    %eax,0x14(%rsp)
  4017a2:	8b 44 24 10          	mov    0x10(%rsp),%eax
  4017a6:	69 c0 98 e3 00 00    	imul   $0xe398,%eax,%eax
  4017ac:	89 44 24 10          	mov    %eax,0x10(%rsp)
  4017b0:	8b 44 24 20          	mov    0x20(%rsp),%eax
  4017b4:	69 c0 8c 74 00 00    	imul   $0x748c,%eax,%eax
  4017ba:	89 44 24 20          	mov    %eax,0x20(%rsp)
  4017be:	8b 44 24 1c          	mov    0x1c(%rsp),%eax
  4017c2:	69 c0 c0 a3 00 00    	imul   $0xa3c0,%eax,%eax
  4017c8:	89 44 24 1c          	mov    %eax,0x1c(%rsp)
  4017cc:	8b 44 24 14          	mov    0x14(%rsp),%eax
  4017d0:	69 c0 e3 01 00 00    	imul   $0x1e3,%eax,%eax
  4017d6:	89 44 24 14          	mov    %eax,0x14(%rsp)
  4017da:	8b 44 24 10          	mov    0x10(%rsp),%eax
  4017de:	69 c0 28 46 00 00    	imul   $0x4628,%eax,%eax
  4017e4:	89 44 24 10          	mov    %eax,0x10(%rsp)
  4017e8:	8b 44 24 24          	mov    0x24(%rsp),%eax
  4017ec:	69 c0 ea 51 00 00    	imul   $0x51ea,%eax,%eax
  4017f2:	89 44 24 24          	mov    %eax,0x24(%rsp)
  4017f6:	8b 04 24             	mov    (%rsp),%eax
  4017f9:	69 c0 ff cb 00 00    	imul   $0xcbff,%eax,%eax
  4017ff:	89 04 24             	mov    %eax,(%rsp)
  401802:	8b 44 24 04          	mov    0x4(%rsp),%eax
  401806:	69 c0 f5 6c 00 00    	imul   $0x6cf5,%eax,%eax
  40180c:	89 44 24 04          	mov    %eax,0x4(%rsp)
  401810:	8b 44 24 0c          	mov    0xc(%rsp),%eax
  401814:	69 c0 bf 4a 00 00    	imul   $0x4abf,%eax,%eax
  40181a:	89 44 24 0c          	mov    %eax,0xc(%rsp)
  40181e:	8b 04 24             	mov    (%rsp),%eax
  401821:	69 c0 20 57 00 00    	imul   $0x5720,%eax,%eax
  401827:	89 04 24             	mov    %eax,(%rsp)
  40182a:	8b 44 24 08          	mov    0x8(%rsp),%eax
  40182e:	69 c0 6c 24 00 00    	imul   $0x246c,%eax,%eax
  401834:	89 44 24 08          	mov    %eax,0x8(%rsp)
  401838:	8b 04 24             	mov    (%rsp),%eax
  40183b:	69 c0 b0 c7 00 00    	imul   $0xc7b0,%eax,%eax
  401841:	89 04 24             	mov    %eax,(%rsp)
  401844:	8b 44 24 24          	mov    0x24(%rsp),%eax
  401848:	69 c0 84 94 00 00    	imul   $0x9484,%eax,%eax
  40184e:	89 44 24 24          	mov    %eax,0x24(%rsp)
  401852:	8b 44 24 10          	mov    0x10(%rsp),%eax
  401856:	69 c0 64 81 00 00    	imul   $0x8164,%eax,%eax
  40185c:	89 44 24 10          	mov    %eax,0x10(%rsp)
  401860:	8b 44 24 10          	mov    0x10(%rsp),%eax
  401864:	69 c0 c8 98 00 00    	imul   $0x98c8,%eax,%eax
  40186a:	89 44 24 10          	mov    %eax,0x10(%rsp)
  40186e:	8b 44 24 10          	mov    0x10(%rsp),%eax
  401872:	69 c0 97 1f 00 00    	imul   $0x1f97,%eax,%eax
  401878:	89 44 24 10          	mov    %eax,0x10(%rsp)
  40187c:	8b 44 24 0c          	mov    0xc(%rsp),%eax
  401880:	69 c0 d8 25 00 00    	imul   $0x25d8,%eax,%eax
  401886:	89 44 24 0c          	mov    %eax,0xc(%rsp)
  40188a:	8b 44 24 0c          	mov    0xc(%rsp),%eax
  40188e:	69 c0 ac a6 00 00    	imul   $0xa6ac,%eax,%eax
  401894:	89 44 24 0c          	mov    %eax,0xc(%rsp)
  401898:	8b 44 24 18          	mov    0x18(%rsp),%eax
  40189c:	69 c0 94 9d 00 00    	imul   $0x9d94,%eax,%eax
  4018a2:	89 44 24 18          	mov    %eax,0x18(%rsp)
  4018a6:	8b 44 24 04          	mov    0x4(%rsp),%eax
  4018aa:	69 c0 a8 dd 00 00    	imul   $0xdda8,%eax,%eax
  4018b0:	89 44 24 04          	mov    %eax,0x4(%rsp)
  4018b4:	8b 44 24 04          	mov    0x4(%rsp),%eax
  4018b8:	69 c0 30 a3 00 00    	imul   $0xa330,%eax,%eax
  4018be:	89 44 24 04          	mov    %eax,0x4(%rsp)
  4018c2:	8b 44 24 0c          	mov    0xc(%rsp),%eax
  4018c6:	69 c0 4e 97 00 00    	imul   $0x974e,%eax,%eax
  4018cc:	89 44 24 0c          	mov    %eax,0xc(%rsp)
  4018d0:	8b 44 24 0c          	mov    0xc(%rsp),%eax
  4018d4:	69 c0 09 28 00 00    	imul   $0x2809,%eax,%eax
  4018da:	89 44 24 0c          	mov    %eax,0xc(%rsp)
  4018de:	8b 44 24 18          	mov    0x18(%rsp),%eax
  4018e2:	69 c0 6f ac 00 00    	imul   $0xac6f,%eax,%eax
  4018e8:	89 44 24 18          	mov    %eax,0x18(%rsp)
  4018ec:	ba 00 00 00 00       	mov    $0x0,%edx
  4018f1:	b8 00 00 00 00       	mov    $0x0,%eax
  4018f6:	eb 0a                	jmp    401902 <scramble+0x573>
  4018f8:	89 d1                	mov    %edx,%ecx
  4018fa:	8b 0c 8c             	mov    (%rsp,%rcx,4),%ecx
  4018fd:	01 c8                	add    %ecx,%eax
  4018ff:	83 c2 01             	add    $0x1,%edx
  401902:	83 fa 09             	cmp    $0x9,%edx
  401905:	76 f1                	jbe    4018f8 <scramble+0x569>
  401907:	48 8b 74 24 28       	mov    0x28(%rsp),%rsi
  40190c:	64 48 33 34 25 28 00 	xor    %fs:0x28,%rsi
  401913:	00 00 
  401915:	74 05                	je     40191c <scramble+0x58d>
  401917:	e8 d4 f3 ff ff       	callq  400cf0 <__stack_chk_fail@plt>
  40191c:	48 83 c4 38          	add    $0x38,%rsp
  401920:	c3                   	retq   

0000000000401921 <getbuf>:
  401921:	48 83 ec 18          	sub    $0x18,%rsp
  401925:	48 89 e7             	mov    %rsp,%rdi
  401928:	e8 9d 03 00 00       	callq  401cca <Gets>
  40192d:	b8 01 00 00 00       	mov    $0x1,%eax
  401932:	48 83 c4 18          	add    $0x18,%rsp
  401936:	c3                   	retq   

0000000000401937 <touch1>:
  401937:	48 83 ec 08          	sub    $0x8,%rsp
  40193b:	c7 05 97 53 20 00 01 	movl   $0x1,0x205397(%rip)        # 606cdc <vlevel>
  401942:	00 00 00 
  401945:	bf c3 43 40 00       	mov    $0x4043c3,%edi
  40194a:	e8 81 f3 ff ff       	callq  400cd0 <puts@plt>
  40194f:	bf 01 00 00 00       	mov    $0x1,%edi
  401954:	e8 b6 05 00 00       	callq  401f0f <validate>
  401959:	bf 00 00 00 00       	mov    $0x0,%edi
  40195e:	e8 ed f4 ff ff       	callq  400e50 <exit@plt>

0000000000401963 <touch2>:
  401963:	48 83 ec 08          	sub    $0x8,%rsp
  401967:	89 fa                	mov    %edi,%edx
  401969:	c7 05 69 53 20 00 02 	movl   $0x2,0x205369(%rip)        # 606cdc <vlevel>
  401970:	00 00 00 
  401973:	39 3d 6b 53 20 00    	cmp    %edi,0x20536b(%rip)        # 606ce4 <cookie>
  401979:	75 20                	jne    40199b <touch2+0x38>
  40197b:	be e8 43 40 00       	mov    $0x4043e8,%esi
  401980:	bf 01 00 00 00       	mov    $0x1,%edi
  401985:	b8 00 00 00 00       	mov    $0x0,%eax
  40198a:	e8 71 f4 ff ff       	callq  400e00 <__printf_chk@plt>
  40198f:	bf 02 00 00 00       	mov    $0x2,%edi
  401994:	e8 76 05 00 00       	callq  401f0f <validate>
  401999:	eb 1e                	jmp    4019b9 <touch2+0x56>
  40199b:	be 10 44 40 00       	mov    $0x404410,%esi
  4019a0:	bf 01 00 00 00       	mov    $0x1,%edi
  4019a5:	b8 00 00 00 00       	mov    $0x0,%eax
  4019aa:	e8 51 f4 ff ff       	callq  400e00 <__printf_chk@plt>
  4019af:	bf 02 00 00 00       	mov    $0x2,%edi
  4019b4:	e8 18 06 00 00       	callq  401fd1 <fail>
  4019b9:	bf 00 00 00 00       	mov    $0x0,%edi
  4019be:	e8 8d f4 ff ff       	callq  400e50 <exit@plt>

00000000004019c3 <hexmatch>:
  4019c3:	41 54                	push   %r12
  4019c5:	55                   	push   %rbp
  4019c6:	53                   	push   %rbx
  4019c7:	48 83 c4 80          	add    $0xffffffffffffff80,%rsp
  4019cb:	89 fd                	mov    %edi,%ebp
  4019cd:	48 89 f3             	mov    %rsi,%rbx
  4019d0:	64 48 8b 04 25 28 00 	mov    %fs:0x28,%rax
  4019d7:	00 00 
  4019d9:	48 89 44 24 78       	mov    %rax,0x78(%rsp)
  4019de:	31 c0                	xor    %eax,%eax
  4019e0:	e8 db f3 ff ff       	callq  400dc0 <random@plt>
  4019e5:	48 89 c1             	mov    %rax,%rcx
  4019e8:	48 ba 0b d7 a3 70 3d 	movabs $0xa3d70a3d70a3d70b,%rdx
  4019ef:	0a d7 a3 
  4019f2:	48 f7 ea             	imul   %rdx
  4019f5:	48 01 ca             	add    %rcx,%rdx
  4019f8:	48 c1 fa 06          	sar    $0x6,%rdx
  4019fc:	48 89 c8             	mov    %rcx,%rax
  4019ff:	48 c1 f8 3f          	sar    $0x3f,%rax
  401a03:	48 29 c2             	sub    %rax,%rdx
  401a06:	48 8d 04 92          	lea    (%rdx,%rdx,4),%rax
  401a0a:	48 8d 14 80          	lea    (%rax,%rax,4),%rdx
  401a0e:	48 8d 04 95 00 00 00 	lea    0x0(,%rdx,4),%rax
  401a15:	00 
  401a16:	48 29 c1             	sub    %rax,%rcx
  401a19:	4c 8d 24 0c          	lea    (%rsp,%rcx,1),%r12
  401a1d:	41 89 e8             	mov    %ebp,%r8d
  401a20:	b9 e0 43 40 00       	mov    $0x4043e0,%ecx
  401a25:	48 c7 c2 ff ff ff ff 	mov    $0xffffffffffffffff,%rdx
  401a2c:	be 01 00 00 00       	mov    $0x1,%esi
  401a31:	4c 89 e7             	mov    %r12,%rdi
  401a34:	b8 00 00 00 00       	mov    $0x0,%eax
  401a39:	e8 42 f4 ff ff       	callq  400e80 <__sprintf_chk@plt>
  401a3e:	ba 09 00 00 00       	mov    $0x9,%edx
  401a43:	4c 89 e6             	mov    %r12,%rsi
  401a46:	48 89 df             	mov    %rbx,%rdi
  401a49:	e8 62 f2 ff ff       	callq  400cb0 <strncmp@plt>
  401a4e:	85 c0                	test   %eax,%eax
  401a50:	0f 94 c0             	sete   %al
  401a53:	48 8b 5c 24 78       	mov    0x78(%rsp),%rbx
  401a58:	64 48 33 1c 25 28 00 	xor    %fs:0x28,%rbx
  401a5f:	00 00 
  401a61:	74 05                	je     401a68 <hexmatch+0xa5>
  401a63:	e8 88 f2 ff ff       	callq  400cf0 <__stack_chk_fail@plt>
  401a68:	0f b6 c0             	movzbl %al,%eax
  401a6b:	48 83 ec 80          	sub    $0xffffffffffffff80,%rsp
  401a6f:	5b                   	pop    %rbx
  401a70:	5d                   	pop    %rbp
  401a71:	41 5c                	pop    %r12
  401a73:	c3                   	retq   

0000000000401a74 <touch3>:
  401a74:	53                   	push   %rbx
  401a75:	48 89 fb             	mov    %rdi,%rbx
  401a78:	c7 05 5a 52 20 00 03 	movl   $0x3,0x20525a(%rip)        # 606cdc <vlevel>
  401a7f:	00 00 00 
  401a82:	48 89 fe             	mov    %rdi,%rsi
  401a85:	8b 3d 59 52 20 00    	mov    0x205259(%rip),%edi        # 606ce4 <cookie>
  401a8b:	e8 33 ff ff ff       	callq  4019c3 <hexmatch>
  401a90:	85 c0                	test   %eax,%eax
  401a92:	74 23                	je     401ab7 <touch3+0x43>
  401a94:	48 89 da             	mov    %rbx,%rdx
  401a97:	be 38 44 40 00       	mov    $0x404438,%esi
  401a9c:	bf 01 00 00 00       	mov    $0x1,%edi
  401aa1:	b8 00 00 00 00       	mov    $0x0,%eax
  401aa6:	e8 55 f3 ff ff       	callq  400e00 <__printf_chk@plt>
  401aab:	bf 03 00 00 00       	mov    $0x3,%edi
  401ab0:	e8 5a 04 00 00       	callq  401f0f <validate>
  401ab5:	eb 21                	jmp    401ad8 <touch3+0x64>
  401ab7:	48 89 da             	mov    %rbx,%rdx
  401aba:	be 60 44 40 00       	mov    $0x404460,%esi
  401abf:	bf 01 00 00 00       	mov    $0x1,%edi
  401ac4:	b8 00 00 00 00       	mov    $0x0,%eax
  401ac9:	e8 32 f3 ff ff       	callq  400e00 <__printf_chk@plt>
  401ace:	bf 03 00 00 00       	mov    $0x3,%edi
  401ad3:	e8 f9 04 00 00       	callq  401fd1 <fail>
  401ad8:	bf 00 00 00 00       	mov    $0x0,%edi
  401add:	e8 6e f3 ff ff       	callq  400e50 <exit@plt>

0000000000401ae2 <test>:
  401ae2:	48 83 ec 08          	sub    $0x8,%rsp
  401ae6:	b8 00 00 00 00       	mov    $0x0,%eax
  401aeb:	e8 31 fe ff ff       	callq  401921 <getbuf>
  401af0:	89 c2                	mov    %eax,%edx
  401af2:	be 88 44 40 00       	mov    $0x404488,%esi
  401af7:	bf 01 00 00 00       	mov    $0x1,%edi
  401afc:	b8 00 00 00 00       	mov    $0x0,%eax
  401b01:	e8 fa f2 ff ff       	callq  400e00 <__printf_chk@plt>
  401b06:	48 83 c4 08          	add    $0x8,%rsp
  401b0a:	c3                   	retq   

0000000000401b0b <start_farm>:
  401b0b:	b8 01 00 00 00       	mov    $0x1,%eax
  401b10:	c3                   	retq   

0000000000401b11 <getval_294>:
  401b11:	b8 58 94 c3 95       	mov    $0x95c39458,%eax
  401b16:	c3                   	retq   

0000000000401b17 <getval_220>:
  401b17:	b8 24 ca e6 58       	mov    $0x58e6ca24,%eax
  401b1c:	c3                   	retq   

0000000000401b1d <addval_349>:
  401b1d:	8d 87 58 90 c3 72    	lea    0x72c39058(%rdi),%eax
  401b23:	c3                   	retq   

0000000000401b24 <addval_355>:
  401b24:	8d 87 4c 89 c7 c3    	lea    -0x3c3876b4(%rdi),%eax
  401b2a:	c3                   	retq   

0000000000401b2b <getval_251>:
  401b2b:	b8 58 90 c2 40       	mov    $0x40c29058,%eax
  401b30:	c3                   	retq   

0000000000401b31 <getval_319>:
  401b31:	b8 48 89 c7 c3       	mov    $0xc3c78948,%eax
  401b36:	c3                   	retq   

0000000000401b37 <getval_281>:
  401b37:	b8 0f 48 89 c7       	mov    $0xc789480f,%eax
  401b3c:	c3                   	retq   

0000000000401b3d <addval_465>:
  401b3d:	8d 87 8f 49 89 c7    	lea    -0x3876b671(%rdi),%eax
  401b43:	c3                   	retq   

0000000000401b44 <mid_farm>:
  401b44:	b8 01 00 00 00       	mov    $0x1,%eax
  401b49:	c3                   	retq   

0000000000401b4a <add_xy>:
  401b4a:	48 8d 04 37          	lea    (%rdi,%rsi,1),%rax
  401b4e:	c3                   	retq   

0000000000401b4f <getval_477>:
  401b4f:	b8 89 d1 20 c0       	mov    $0xc020d189,%eax
  401b54:	c3                   	retq   

0000000000401b55 <setval_327>:
  401b55:	c7 07 81 ce 08 db    	movl   $0xdb08ce81,(%rdi)
  401b5b:	c3                   	retq   

0000000000401b5c <addval_336>:
  401b5c:	8d 87 d8 91 89 ce    	lea    -0x31766e28(%rdi),%eax
  401b62:	c3                   	retq   

0000000000401b63 <setval_136>:
  401b63:	c7 07 48 99 e0 c3    	movl   $0xc3e09948,(%rdi)
  401b69:	c3                   	retq   

0000000000401b6a <addval_269>:
  401b6a:	8d 87 5c 48 89 e0    	lea    -0x1f76b7a4(%rdi),%eax
  401b70:	c3                   	retq   

0000000000401b71 <addval_103>:
  401b71:	8d 87 48 89 e0 c7    	lea    -0x381f76b8(%rdi),%eax
  401b77:	c3                   	retq   

0000000000401b78 <addval_418>:
  401b78:	8d 87 89 ce 90 c3    	lea    -0x3c6f3177(%rdi),%eax
  401b7e:	c3                   	retq   

0000000000401b7f <getval_489>:
  401b7f:	b8 82 89 ce 94       	mov    $0x94ce8982,%eax
  401b84:	c3                   	retq   

0000000000401b85 <addval_316>:
  401b85:	8d 87 48 89 e0 c3    	lea    -0x3c1f76b8(%rdi),%eax
  401b8b:	c3                   	retq   

0000000000401b8c <getval_274>:
  401b8c:	b8 48 89 e0 91       	mov    $0x91e08948,%eax
  401b91:	c3                   	retq   

0000000000401b92 <getval_151>:
  401b92:	b8 89 d1 91 c3       	mov    $0xc391d189,%eax
  401b97:	c3                   	retq   

0000000000401b98 <setval_278>:
  401b98:	c7 07 89 d1 18 d2    	movl   $0xd218d189,(%rdi)
  401b9e:	c3                   	retq   

0000000000401b9f <addval_457>:
  401b9f:	8d 87 a9 d1 20 d2    	lea    -0x2ddf2e57(%rdi),%eax
  401ba5:	c3                   	retq   

0000000000401ba6 <setval_277>:
  401ba6:	c7 07 89 c2 20 c0    	movl   $0xc020c289,(%rdi)
  401bac:	c3                   	retq   

0000000000401bad <addval_192>:
  401bad:	8d 87 48 89 e0 c7    	lea    -0x381f76b8(%rdi),%eax
  401bb3:	c3                   	retq   

0000000000401bb4 <setval_272>:
  401bb4:	c7 07 48 89 e0 94    	movl   $0x94e08948,(%rdi)
  401bba:	c3                   	retq   

0000000000401bbb <getval_423>:
  401bbb:	b8 89 ce 60 db       	mov    $0xdb60ce89,%eax
  401bc0:	c3                   	retq   

0000000000401bc1 <addval_383>:
  401bc1:	8d 87 99 c2 20 c0    	lea    -0x3fdf3d67(%rdi),%eax
  401bc7:	c3                   	retq   

0000000000401bc8 <getval_497>:
  401bc8:	b8 65 89 ce c2       	mov    $0xc2ce8965,%eax
  401bcd:	c3                   	retq   

0000000000401bce <getval_492>:
  401bce:	b8 30 89 ce c7       	mov    $0xc7ce8930,%eax
  401bd3:	c3                   	retq   

0000000000401bd4 <setval_447>:
  401bd4:	c7 07 89 d1 78 d2    	movl   $0xd278d189,(%rdi)
  401bda:	c3                   	retq   

0000000000401bdb <addval_384>:
  401bdb:	8d 87 88 c2 20 c9    	lea    -0x36df3d78(%rdi),%eax
  401be1:	c3                   	retq   

0000000000401be2 <addval_283>:
  401be2:	8d 87 89 c2 94 90    	lea    -0x6f6b3d77(%rdi),%eax
  401be8:	c3                   	retq   

0000000000401be9 <addval_458>:
  401be9:	8d 87 89 c2 08 c9    	lea    -0x36f73d77(%rdi),%eax
  401bef:	c3                   	retq   

0000000000401bf0 <setval_254>:
  401bf0:	c7 07 9c 89 d1 90    	movl   $0x90d1899c,(%rdi)
  401bf6:	c3                   	retq   

0000000000401bf7 <addval_331>:
  401bf7:	8d 87 88 c2 20 db    	lea    -0x24df3d78(%rdi),%eax
  401bfd:	c3                   	retq   

0000000000401bfe <addval_287>:
  401bfe:	8d 87 a9 d1 90 c3    	lea    -0x3c6f2e57(%rdi),%eax
  401c04:	c3                   	retq   

0000000000401c05 <getval_167>:
  401c05:	b8 8d c2 38 d2       	mov    $0xd238c28d,%eax
  401c0a:	c3                   	retq   

0000000000401c0b <getval_250>:
  401c0b:	b8 89 c2 a4 db       	mov    $0xdba4c289,%eax
  401c10:	c3                   	retq   

0000000000401c11 <getval_140>:
  401c11:	b8 8b d1 c3 ab       	mov    $0xabc3d18b,%eax
  401c16:	c3                   	retq   

0000000000401c17 <setval_236>:
  401c17:	c7 07 09 ce 84 c9    	movl   $0xc984ce09,(%rdi)
  401c1d:	c3                   	retq   

0000000000401c1e <getval_356>:
  401c1e:	b8 48 89 e0 92       	mov    $0x92e08948,%eax
  401c23:	c3                   	retq   

0000000000401c24 <end_farm>:
  401c24:	b8 01 00 00 00       	mov    $0x1,%eax
  401c29:	c3                   	retq   

0000000000401c2a <save_char>:
  401c2a:	8b 05 d4 5c 20 00    	mov    0x205cd4(%rip),%eax        # 607904 <gets_cnt>
  401c30:	3d ff 03 00 00       	cmp    $0x3ff,%eax
  401c35:	7f 49                	jg     401c80 <save_char+0x56>
  401c37:	8d 14 40             	lea    (%rax,%rax,2),%edx
  401c3a:	89 f9                	mov    %edi,%ecx
  401c3c:	c0 e9 04             	shr    $0x4,%cl
  401c3f:	83 e1 0f             	and    $0xf,%ecx
  401c42:	0f b6 b1 b0 47 40 00 	movzbl 0x4047b0(%rcx),%esi
  401c49:	48 63 ca             	movslq %edx,%rcx
  401c4c:	40 88 b1 00 6d 60 00 	mov    %sil,0x606d00(%rcx)
  401c53:	8d 4a 01             	lea    0x1(%rdx),%ecx
  401c56:	83 e7 0f             	and    $0xf,%edi
  401c59:	0f b6 b7 b0 47 40 00 	movzbl 0x4047b0(%rdi),%esi
  401c60:	48 63 c9             	movslq %ecx,%rcx
  401c63:	40 88 b1 00 6d 60 00 	mov    %sil,0x606d00(%rcx)
  401c6a:	83 c2 02             	add    $0x2,%edx
  401c6d:	48 63 d2             	movslq %edx,%rdx
  401c70:	c6 82 00 6d 60 00 20 	movb   $0x20,0x606d00(%rdx)
  401c77:	83 c0 01             	add    $0x1,%eax
  401c7a:	89 05 84 5c 20 00    	mov    %eax,0x205c84(%rip)        # 607904 <gets_cnt>
  401c80:	f3 c3                	repz retq 

0000000000401c82 <save_term>:
  401c82:	8b 05 7c 5c 20 00    	mov    0x205c7c(%rip),%eax        # 607904 <gets_cnt>
  401c88:	8d 04 40             	lea    (%rax,%rax,2),%eax
  401c8b:	48 98                	cltq   
  401c8d:	c6 80 00 6d 60 00 00 	movb   $0x0,0x606d00(%rax)
  401c94:	c3                   	retq   

0000000000401c95 <check_fail>:
  401c95:	48 83 ec 08          	sub    $0x8,%rsp
  401c99:	0f be 15 68 5c 20 00 	movsbl 0x205c68(%rip),%edx        # 607908 <target_prefix>
  401ca0:	41 b8 00 6d 60 00    	mov    $0x606d00,%r8d
  401ca6:	8b 0d 2c 50 20 00    	mov    0x20502c(%rip),%ecx        # 606cd8 <check_level>
  401cac:	be ab 44 40 00       	mov    $0x4044ab,%esi
  401cb1:	bf 01 00 00 00       	mov    $0x1,%edi
  401cb6:	b8 00 00 00 00       	mov    $0x0,%eax
  401cbb:	e8 40 f1 ff ff       	callq  400e00 <__printf_chk@plt>
  401cc0:	bf 01 00 00 00       	mov    $0x1,%edi
  401cc5:	e8 86 f1 ff ff       	callq  400e50 <exit@plt>

0000000000401cca <Gets>:
  401cca:	41 54                	push   %r12
  401ccc:	55                   	push   %rbp
  401ccd:	53                   	push   %rbx
  401cce:	49 89 fc             	mov    %rdi,%r12
  401cd1:	c7 05 29 5c 20 00 00 	movl   $0x0,0x205c29(%rip)        # 607904 <gets_cnt>
  401cd8:	00 00 00 
  401cdb:	48 89 fb             	mov    %rdi,%rbx
  401cde:	eb 11                	jmp    401cf1 <Gets+0x27>
  401ce0:	48 8d 6b 01          	lea    0x1(%rbx),%rbp
  401ce4:	88 03                	mov    %al,(%rbx)
  401ce6:	0f b6 f8             	movzbl %al,%edi
  401ce9:	e8 3c ff ff ff       	callq  401c2a <save_char>
  401cee:	48 89 eb             	mov    %rbp,%rbx
  401cf1:	48 8b 3d d8 4f 20 00 	mov    0x204fd8(%rip),%rdi        # 606cd0 <infile>
  401cf8:	e8 d3 f0 ff ff       	callq  400dd0 <_IO_getc@plt>
  401cfd:	83 f8 ff             	cmp    $0xffffffff,%eax
  401d00:	74 05                	je     401d07 <Gets+0x3d>
  401d02:	83 f8 0a             	cmp    $0xa,%eax
  401d05:	75 d9                	jne    401ce0 <Gets+0x16>
  401d07:	c6 03 00             	movb   $0x0,(%rbx)
  401d0a:	b8 00 00 00 00       	mov    $0x0,%eax
  401d0f:	e8 6e ff ff ff       	callq  401c82 <save_term>
  401d14:	4c 89 e0             	mov    %r12,%rax
  401d17:	5b                   	pop    %rbx
  401d18:	5d                   	pop    %rbp
  401d19:	41 5c                	pop    %r12
  401d1b:	c3                   	retq   

0000000000401d1c <notify_server>:
  401d1c:	53                   	push   %rbx
  401d1d:	48 81 ec 10 40 00 00 	sub    $0x4010,%rsp
  401d24:	64 48 8b 04 25 28 00 	mov    %fs:0x28,%rax
  401d2b:	00 00 
  401d2d:	48 89 84 24 08 40 00 	mov    %rax,0x4008(%rsp)
  401d34:	00 
  401d35:	31 c0                	xor    %eax,%eax
  401d37:	83 3d aa 4f 20 00 00 	cmpl   $0x0,0x204faa(%rip)        # 606ce8 <is_checker>
  401d3e:	0f 85 aa 01 00 00    	jne    401eee <notify_server+0x1d2>
  401d44:	89 fb                	mov    %edi,%ebx
  401d46:	8b 05 b8 5b 20 00    	mov    0x205bb8(%rip),%eax        # 607904 <gets_cnt>
  401d4c:	83 c0 64             	add    $0x64,%eax
  401d4f:	3d 00 20 00 00       	cmp    $0x2000,%eax
  401d54:	7e 1e                	jle    401d74 <notify_server+0x58>
  401d56:	be e0 45 40 00       	mov    $0x4045e0,%esi
  401d5b:	bf 01 00 00 00       	mov    $0x1,%edi
  401d60:	b8 00 00 00 00       	mov    $0x0,%eax
  401d65:	e8 96 f0 ff ff       	callq  400e00 <__printf_chk@plt>
  401d6a:	bf 01 00 00 00       	mov    $0x1,%edi
  401d6f:	e8 dc f0 ff ff       	callq  400e50 <exit@plt>
  401d74:	0f be 05 8d 5b 20 00 	movsbl 0x205b8d(%rip),%eax        # 607908 <target_prefix>
  401d7b:	83 3d f6 4e 20 00 00 	cmpl   $0x0,0x204ef6(%rip)        # 606c78 <notify>
  401d82:	74 08                	je     401d8c <notify_server+0x70>
  401d84:	8b 15 56 4f 20 00    	mov    0x204f56(%rip),%edx        # 606ce0 <authkey>
  401d8a:	eb 05                	jmp    401d91 <notify_server+0x75>
  401d8c:	ba ff ff ff ff       	mov    $0xffffffff,%edx
  401d91:	85 db                	test   %ebx,%ebx
  401d93:	74 08                	je     401d9d <notify_server+0x81>
  401d95:	41 b9 c1 44 40 00    	mov    $0x4044c1,%r9d
  401d9b:	eb 06                	jmp    401da3 <notify_server+0x87>
  401d9d:	41 b9 c6 44 40 00    	mov    $0x4044c6,%r9d
  401da3:	68 00 6d 60 00       	pushq  $0x606d00
  401da8:	56                   	push   %rsi
  401da9:	50                   	push   %rax
  401daa:	52                   	push   %rdx
  401dab:	44 8b 05 b6 43 20 00 	mov    0x2043b6(%rip),%r8d        # 606168 <target_id>
  401db2:	b9 cb 44 40 00       	mov    $0x4044cb,%ecx
  401db7:	ba 00 20 00 00       	mov    $0x2000,%edx
  401dbc:	be 01 00 00 00       	mov    $0x1,%esi
  401dc1:	48 8d 7c 24 20       	lea    0x20(%rsp),%rdi
  401dc6:	b8 00 00 00 00       	mov    $0x0,%eax
  401dcb:	e8 b0 f0 ff ff       	callq  400e80 <__sprintf_chk@plt>
  401dd0:	48 83 c4 20          	add    $0x20,%rsp
  401dd4:	83 3d 9d 4e 20 00 00 	cmpl   $0x0,0x204e9d(%rip)        # 606c78 <notify>
  401ddb:	0f 84 81 00 00 00    	je     401e62 <notify_server+0x146>
  401de1:	85 db                	test   %ebx,%ebx
  401de3:	74 6e                	je     401e53 <notify_server+0x137>
  401de5:	4c 8d 8c 24 00 20 00 	lea    0x2000(%rsp),%r9
  401dec:	00 
  401ded:	41 b8 00 00 00 00    	mov    $0x0,%r8d
  401df3:	48 89 e1             	mov    %rsp,%rcx
  401df6:	48 8b 15 73 43 20 00 	mov    0x204373(%rip),%rdx        # 606170 <lab>
  401dfd:	48 8b 35 74 43 20 00 	mov    0x204374(%rip),%rsi        # 606178 <course>
  401e04:	48 8b 3d 55 43 20 00 	mov    0x204355(%rip),%rdi        # 606160 <user_id>
  401e0b:	e8 ef 10 00 00       	callq  402eff <driver_post>
  401e10:	85 c0                	test   %eax,%eax
  401e12:	79 26                	jns    401e3a <notify_server+0x11e>
  401e14:	48 8d 94 24 00 20 00 	lea    0x2000(%rsp),%rdx
  401e1b:	00 
  401e1c:	be e7 44 40 00       	mov    $0x4044e7,%esi
  401e21:	bf 01 00 00 00       	mov    $0x1,%edi
  401e26:	b8 00 00 00 00       	mov    $0x0,%eax
  401e2b:	e8 d0 ef ff ff       	callq  400e00 <__printf_chk@plt>
  401e30:	bf 01 00 00 00       	mov    $0x1,%edi
  401e35:	e8 16 f0 ff ff       	callq  400e50 <exit@plt>
  401e3a:	bf 10 46 40 00       	mov    $0x404610,%edi
  401e3f:	e8 8c ee ff ff       	callq  400cd0 <puts@plt>
  401e44:	bf f3 44 40 00       	mov    $0x4044f3,%edi
  401e49:	e8 82 ee ff ff       	callq  400cd0 <puts@plt>
  401e4e:	e9 9b 00 00 00       	jmpq   401eee <notify_server+0x1d2>
  401e53:	bf fd 44 40 00       	mov    $0x4044fd,%edi
  401e58:	e8 73 ee ff ff       	callq  400cd0 <puts@plt>
  401e5d:	e9 8c 00 00 00       	jmpq   401eee <notify_server+0x1d2>
  401e62:	85 db                	test   %ebx,%ebx
  401e64:	74 07                	je     401e6d <notify_server+0x151>
  401e66:	ba c1 44 40 00       	mov    $0x4044c1,%edx
  401e6b:	eb 05                	jmp    401e72 <notify_server+0x156>
  401e6d:	ba c6 44 40 00       	mov    $0x4044c6,%edx
  401e72:	be 48 46 40 00       	mov    $0x404648,%esi
  401e77:	bf 01 00 00 00       	mov    $0x1,%edi
  401e7c:	b8 00 00 00 00       	mov    $0x0,%eax
  401e81:	e8 7a ef ff ff       	callq  400e00 <__printf_chk@plt>
  401e86:	48 8b 15 d3 42 20 00 	mov    0x2042d3(%rip),%rdx        # 606160 <user_id>
  401e8d:	be 04 45 40 00       	mov    $0x404504,%esi
  401e92:	bf 01 00 00 00       	mov    $0x1,%edi
  401e97:	b8 00 00 00 00       	mov    $0x0,%eax
  401e9c:	e8 5f ef ff ff       	callq  400e00 <__printf_chk@plt>
  401ea1:	48 8b 15 d0 42 20 00 	mov    0x2042d0(%rip),%rdx        # 606178 <course>
  401ea8:	be 11 45 40 00       	mov    $0x404511,%esi
  401ead:	bf 01 00 00 00       	mov    $0x1,%edi
  401eb2:	b8 00 00 00 00       	mov    $0x0,%eax
  401eb7:	e8 44 ef ff ff       	callq  400e00 <__printf_chk@plt>
  401ebc:	48 8b 15 ad 42 20 00 	mov    0x2042ad(%rip),%rdx        # 606170 <lab>
  401ec3:	be 1d 45 40 00       	mov    $0x40451d,%esi
  401ec8:	bf 01 00 00 00       	mov    $0x1,%edi
  401ecd:	b8 00 00 00 00       	mov    $0x0,%eax
  401ed2:	e8 29 ef ff ff       	callq  400e00 <__printf_chk@plt>
  401ed7:	48 89 e2             	mov    %rsp,%rdx
  401eda:	be 26 45 40 00       	mov    $0x404526,%esi
  401edf:	bf 01 00 00 00       	mov    $0x1,%edi
  401ee4:	b8 00 00 00 00       	mov    $0x0,%eax
  401ee9:	e8 12 ef ff ff       	callq  400e00 <__printf_chk@plt>
  401eee:	48 8b 84 24 08 40 00 	mov    0x4008(%rsp),%rax
  401ef5:	00 
  401ef6:	64 48 33 04 25 28 00 	xor    %fs:0x28,%rax
  401efd:	00 00 
  401eff:	74 05                	je     401f06 <notify_server+0x1ea>
  401f01:	e8 ea ed ff ff       	callq  400cf0 <__stack_chk_fail@plt>
  401f06:	48 81 c4 10 40 00 00 	add    $0x4010,%rsp
  401f0d:	5b                   	pop    %rbx
  401f0e:	c3                   	retq   

0000000000401f0f <validate>:
  401f0f:	53                   	push   %rbx
  401f10:	89 fb                	mov    %edi,%ebx
  401f12:	83 3d cf 4d 20 00 00 	cmpl   $0x0,0x204dcf(%rip)        # 606ce8 <is_checker>
  401f19:	74 6b                	je     401f86 <validate+0x77>
  401f1b:	39 3d bb 4d 20 00    	cmp    %edi,0x204dbb(%rip)        # 606cdc <vlevel>
  401f21:	74 14                	je     401f37 <validate+0x28>
  401f23:	bf 32 45 40 00       	mov    $0x404532,%edi
  401f28:	e8 a3 ed ff ff       	callq  400cd0 <puts@plt>
  401f2d:	b8 00 00 00 00       	mov    $0x0,%eax
  401f32:	e8 5e fd ff ff       	callq  401c95 <check_fail>
  401f37:	8b 15 9b 4d 20 00    	mov    0x204d9b(%rip),%edx        # 606cd8 <check_level>
  401f3d:	39 d7                	cmp    %edx,%edi
  401f3f:	74 20                	je     401f61 <validate+0x52>
  401f41:	89 f9                	mov    %edi,%ecx
  401f43:	be 70 46 40 00       	mov    $0x404670,%esi
  401f48:	bf 01 00 00 00       	mov    $0x1,%edi
  401f4d:	b8 00 00 00 00       	mov    $0x0,%eax
  401f52:	e8 a9 ee ff ff       	callq  400e00 <__printf_chk@plt>
  401f57:	b8 00 00 00 00       	mov    $0x0,%eax
  401f5c:	e8 34 fd ff ff       	callq  401c95 <check_fail>
  401f61:	0f be 15 a0 59 20 00 	movsbl 0x2059a0(%rip),%edx        # 607908 <target_prefix>
  401f68:	41 b8 00 6d 60 00    	mov    $0x606d00,%r8d
  401f6e:	89 f9                	mov    %edi,%ecx
  401f70:	be 50 45 40 00       	mov    $0x404550,%esi
  401f75:	bf 01 00 00 00       	mov    $0x1,%edi
  401f7a:	b8 00 00 00 00       	mov    $0x0,%eax
  401f7f:	e8 7c ee ff ff       	callq  400e00 <__printf_chk@plt>
  401f84:	eb 49                	jmp    401fcf <validate+0xc0>
  401f86:	3b 3d 50 4d 20 00    	cmp    0x204d50(%rip),%edi        # 606cdc <vlevel>
  401f8c:	74 18                	je     401fa6 <validate+0x97>
  401f8e:	bf 32 45 40 00       	mov    $0x404532,%edi
  401f93:	e8 38 ed ff ff       	callq  400cd0 <puts@plt>
  401f98:	89 de                	mov    %ebx,%esi
  401f9a:	bf 00 00 00 00       	mov    $0x0,%edi
  401f9f:	e8 78 fd ff ff       	callq  401d1c <notify_server>
  401fa4:	eb 29                	jmp    401fcf <validate+0xc0>
  401fa6:	0f be 0d 5b 59 20 00 	movsbl 0x20595b(%rip),%ecx        # 607908 <target_prefix>
  401fad:	89 fa                	mov    %edi,%edx
  401faf:	be 98 46 40 00       	mov    $0x404698,%esi
  401fb4:	bf 01 00 00 00       	mov    $0x1,%edi
  401fb9:	b8 00 00 00 00       	mov    $0x0,%eax
  401fbe:	e8 3d ee ff ff       	callq  400e00 <__printf_chk@plt>
  401fc3:	89 de                	mov    %ebx,%esi
  401fc5:	bf 01 00 00 00       	mov    $0x1,%edi
  401fca:	e8 4d fd ff ff       	callq  401d1c <notify_server>
  401fcf:	5b                   	pop    %rbx
  401fd0:	c3                   	retq   

0000000000401fd1 <fail>:
  401fd1:	48 83 ec 08          	sub    $0x8,%rsp
  401fd5:	83 3d 0c 4d 20 00 00 	cmpl   $0x0,0x204d0c(%rip)        # 606ce8 <is_checker>
  401fdc:	74 0a                	je     401fe8 <fail+0x17>
  401fde:	b8 00 00 00 00       	mov    $0x0,%eax
  401fe3:	e8 ad fc ff ff       	callq  401c95 <check_fail>
  401fe8:	89 fe                	mov    %edi,%esi
  401fea:	bf 00 00 00 00       	mov    $0x0,%edi
  401fef:	e8 28 fd ff ff       	callq  401d1c <notify_server>
  401ff4:	48 83 c4 08          	add    $0x8,%rsp
  401ff8:	c3                   	retq   

0000000000401ff9 <bushandler>:
  401ff9:	48 83 ec 08          	sub    $0x8,%rsp
  401ffd:	83 3d e4 4c 20 00 00 	cmpl   $0x0,0x204ce4(%rip)        # 606ce8 <is_checker>
  402004:	74 14                	je     40201a <bushandler+0x21>
  402006:	bf 65 45 40 00       	mov    $0x404565,%edi
  40200b:	e8 c0 ec ff ff       	callq  400cd0 <puts@plt>
  402010:	b8 00 00 00 00       	mov    $0x0,%eax
  402015:	e8 7b fc ff ff       	callq  401c95 <check_fail>
  40201a:	bf d0 46 40 00       	mov    $0x4046d0,%edi
  40201f:	e8 ac ec ff ff       	callq  400cd0 <puts@plt>
  402024:	bf 6f 45 40 00       	mov    $0x40456f,%edi
  402029:	e8 a2 ec ff ff       	callq  400cd0 <puts@plt>
  40202e:	be 00 00 00 00       	mov    $0x0,%esi
  402033:	bf 00 00 00 00       	mov    $0x0,%edi
  402038:	e8 df fc ff ff       	callq  401d1c <notify_server>
  40203d:	bf 01 00 00 00       	mov    $0x1,%edi
  402042:	e8 09 ee ff ff       	callq  400e50 <exit@plt>

0000000000402047 <seghandler>:
  402047:	48 83 ec 08          	sub    $0x8,%rsp
  40204b:	83 3d 96 4c 20 00 00 	cmpl   $0x0,0x204c96(%rip)        # 606ce8 <is_checker>
  402052:	74 14                	je     402068 <seghandler+0x21>
  402054:	bf 85 45 40 00       	mov    $0x404585,%edi
  402059:	e8 72 ec ff ff       	callq  400cd0 <puts@plt>
  40205e:	b8 00 00 00 00       	mov    $0x0,%eax
  402063:	e8 2d fc ff ff       	callq  401c95 <check_fail>
  402068:	bf f0 46 40 00       	mov    $0x4046f0,%edi
  40206d:	e8 5e ec ff ff       	callq  400cd0 <puts@plt>
  402072:	bf 6f 45 40 00       	mov    $0x40456f,%edi
  402077:	e8 54 ec ff ff       	callq  400cd0 <puts@plt>
  40207c:	be 00 00 00 00       	mov    $0x0,%esi
  402081:	bf 00 00 00 00       	mov    $0x0,%edi
  402086:	e8 91 fc ff ff       	callq  401d1c <notify_server>
  40208b:	bf 01 00 00 00       	mov    $0x1,%edi
  402090:	e8 bb ed ff ff       	callq  400e50 <exit@plt>

0000000000402095 <illegalhandler>:
  402095:	48 83 ec 08          	sub    $0x8,%rsp
  402099:	83 3d 48 4c 20 00 00 	cmpl   $0x0,0x204c48(%rip)        # 606ce8 <is_checker>
  4020a0:	74 14                	je     4020b6 <illegalhandler+0x21>
  4020a2:	bf 98 45 40 00       	mov    $0x404598,%edi
  4020a7:	e8 24 ec ff ff       	callq  400cd0 <puts@plt>
  4020ac:	b8 00 00 00 00       	mov    $0x0,%eax
  4020b1:	e8 df fb ff ff       	callq  401c95 <check_fail>
  4020b6:	bf 18 47 40 00       	mov    $0x404718,%edi
  4020bb:	e8 10 ec ff ff       	callq  400cd0 <puts@plt>
  4020c0:	bf 6f 45 40 00       	mov    $0x40456f,%edi
  4020c5:	e8 06 ec ff ff       	callq  400cd0 <puts@plt>
  4020ca:	be 00 00 00 00       	mov    $0x0,%esi
  4020cf:	bf 00 00 00 00       	mov    $0x0,%edi
  4020d4:	e8 43 fc ff ff       	callq  401d1c <notify_server>
  4020d9:	bf 01 00 00 00       	mov    $0x1,%edi
  4020de:	e8 6d ed ff ff       	callq  400e50 <exit@plt>

00000000004020e3 <sigalrmhandler>:
  4020e3:	48 83 ec 08          	sub    $0x8,%rsp
  4020e7:	83 3d fa 4b 20 00 00 	cmpl   $0x0,0x204bfa(%rip)        # 606ce8 <is_checker>
  4020ee:	74 14                	je     402104 <sigalrmhandler+0x21>
  4020f0:	bf ac 45 40 00       	mov    $0x4045ac,%edi
  4020f5:	e8 d6 eb ff ff       	callq  400cd0 <puts@plt>
  4020fa:	b8 00 00 00 00       	mov    $0x0,%eax
  4020ff:	e8 91 fb ff ff       	callq  401c95 <check_fail>
  402104:	ba 05 00 00 00       	mov    $0x5,%edx
  402109:	be 48 47 40 00       	mov    $0x404748,%esi
  40210e:	bf 01 00 00 00       	mov    $0x1,%edi
  402113:	b8 00 00 00 00       	mov    $0x0,%eax
  402118:	e8 e3 ec ff ff       	callq  400e00 <__printf_chk@plt>
  40211d:	be 00 00 00 00       	mov    $0x0,%esi
  402122:	bf 00 00 00 00       	mov    $0x0,%edi
  402127:	e8 f0 fb ff ff       	callq  401d1c <notify_server>
  40212c:	bf 01 00 00 00       	mov    $0x1,%edi
  402131:	e8 1a ed ff ff       	callq  400e50 <exit@plt>

0000000000402136 <launch>:
  402136:	55                   	push   %rbp
  402137:	48 89 e5             	mov    %rsp,%rbp
  40213a:	48 83 ec 10          	sub    $0x10,%rsp
  40213e:	48 89 fa             	mov    %rdi,%rdx
  402141:	64 48 8b 04 25 28 00 	mov    %fs:0x28,%rax
  402148:	00 00 
  40214a:	48 89 45 f8          	mov    %rax,-0x8(%rbp)
  40214e:	31 c0                	xor    %eax,%eax
  402150:	48 8d 47 1e          	lea    0x1e(%rdi),%rax
  402154:	48 83 e0 f0          	and    $0xfffffffffffffff0,%rax
  402158:	48 29 c4             	sub    %rax,%rsp
  40215b:	48 8d 7c 24 0f       	lea    0xf(%rsp),%rdi
  402160:	48 83 e7 f0          	and    $0xfffffffffffffff0,%rdi
  402164:	be f4 00 00 00       	mov    $0xf4,%esi
  402169:	e8 a2 eb ff ff       	callq  400d10 <memset@plt>
  40216e:	48 8b 05 0b 4b 20 00 	mov    0x204b0b(%rip),%rax        # 606c80 <__TMC_END__>
  402175:	48 39 05 54 4b 20 00 	cmp    %rax,0x204b54(%rip)        # 606cd0 <infile>
  40217c:	75 14                	jne    402192 <launch+0x5c>
  40217e:	be b4 45 40 00       	mov    $0x4045b4,%esi
  402183:	bf 01 00 00 00       	mov    $0x1,%edi
  402188:	b8 00 00 00 00       	mov    $0x0,%eax
  40218d:	e8 6e ec ff ff       	callq  400e00 <__printf_chk@plt>
  402192:	c7 05 40 4b 20 00 00 	movl   $0x0,0x204b40(%rip)        # 606cdc <vlevel>
  402199:	00 00 00 
  40219c:	b8 00 00 00 00       	mov    $0x0,%eax
  4021a1:	e8 3c f9 ff ff       	callq  401ae2 <test>
  4021a6:	83 3d 3b 4b 20 00 00 	cmpl   $0x0,0x204b3b(%rip)        # 606ce8 <is_checker>
  4021ad:	74 14                	je     4021c3 <launch+0x8d>
  4021af:	bf c1 45 40 00       	mov    $0x4045c1,%edi
  4021b4:	e8 17 eb ff ff       	callq  400cd0 <puts@plt>
  4021b9:	b8 00 00 00 00       	mov    $0x0,%eax
  4021be:	e8 d2 fa ff ff       	callq  401c95 <check_fail>
  4021c3:	bf cc 45 40 00       	mov    $0x4045cc,%edi
  4021c8:	e8 03 eb ff ff       	callq  400cd0 <puts@plt>
  4021cd:	48 8b 45 f8          	mov    -0x8(%rbp),%rax
  4021d1:	64 48 33 04 25 28 00 	xor    %fs:0x28,%rax
  4021d8:	00 00 
  4021da:	74 05                	je     4021e1 <launch+0xab>
  4021dc:	e8 0f eb ff ff       	callq  400cf0 <__stack_chk_fail@plt>
  4021e1:	c9                   	leaveq 
  4021e2:	c3                   	retq   

00000000004021e3 <stable_launch>:
  4021e3:	53                   	push   %rbx
  4021e4:	48 89 3d dd 4a 20 00 	mov    %rdi,0x204add(%rip)        # 606cc8 <global_offset>
  4021eb:	41 b9 00 00 00 00    	mov    $0x0,%r9d
  4021f1:	41 b8 00 00 00 00    	mov    $0x0,%r8d
  4021f7:	b9 32 01 00 00       	mov    $0x132,%ecx
  4021fc:	ba 07 00 00 00       	mov    $0x7,%edx
  402201:	be 00 00 10 00       	mov    $0x100000,%esi
  402206:	bf 00 60 58 55       	mov    $0x55586000,%edi
  40220b:	e8 f0 ea ff ff       	callq  400d00 <mmap@plt>
  402210:	48 89 c3             	mov    %rax,%rbx
  402213:	48 3d 00 60 58 55    	cmp    $0x55586000,%rax
  402219:	74 37                	je     402252 <stable_launch+0x6f>
  40221b:	be 00 00 10 00       	mov    $0x100000,%esi
  402220:	48 89 c7             	mov    %rax,%rdi
  402223:	e8 c8 eb ff ff       	callq  400df0 <munmap@plt>
  402228:	b9 00 60 58 55       	mov    $0x55586000,%ecx
  40222d:	ba 80 47 40 00       	mov    $0x404780,%edx
  402232:	be 01 00 00 00       	mov    $0x1,%esi
  402237:	48 8b 3d 62 4a 20 00 	mov    0x204a62(%rip),%rdi        # 606ca0 <stderr@@GLIBC_2.2.5>
  40223e:	b8 00 00 00 00       	mov    $0x0,%eax
  402243:	e8 28 ec ff ff       	callq  400e70 <__fprintf_chk@plt>
  402248:	bf 01 00 00 00       	mov    $0x1,%edi
  40224d:	e8 fe eb ff ff       	callq  400e50 <exit@plt>
  402252:	48 8d 90 f8 ff 0f 00 	lea    0xffff8(%rax),%rdx
  402259:	48 89 15 b0 56 20 00 	mov    %rdx,0x2056b0(%rip)        # 607910 <stack_top>
  402260:	48 89 e0             	mov    %rsp,%rax
  402263:	48 89 d4             	mov    %rdx,%rsp
  402266:	48 89 c2             	mov    %rax,%rdx
  402269:	48 89 15 50 4a 20 00 	mov    %rdx,0x204a50(%rip)        # 606cc0 <global_save_stack>
  402270:	48 8b 3d 51 4a 20 00 	mov    0x204a51(%rip),%rdi        # 606cc8 <global_offset>
  402277:	e8 ba fe ff ff       	callq  402136 <launch>
  40227c:	48 8b 05 3d 4a 20 00 	mov    0x204a3d(%rip),%rax        # 606cc0 <global_save_stack>
  402283:	48 89 c4             	mov    %rax,%rsp
  402286:	be 00 00 10 00       	mov    $0x100000,%esi
  40228b:	48 89 df             	mov    %rbx,%rdi
  40228e:	e8 5d eb ff ff       	callq  400df0 <munmap@plt>
  402293:	5b                   	pop    %rbx
  402294:	c3                   	retq   

0000000000402295 <rio_readinitb>:
  402295:	89 37                	mov    %esi,(%rdi)
  402297:	c7 47 04 00 00 00 00 	movl   $0x0,0x4(%rdi)
  40229e:	48 8d 47 10          	lea    0x10(%rdi),%rax
  4022a2:	48 89 47 08          	mov    %rax,0x8(%rdi)
  4022a6:	c3                   	retq   

00000000004022a7 <sigalrm_handler>:
  4022a7:	48 83 ec 08          	sub    $0x8,%rsp
  4022ab:	b9 00 00 00 00       	mov    $0x0,%ecx
  4022b0:	ba c0 47 40 00       	mov    $0x4047c0,%edx
  4022b5:	be 01 00 00 00       	mov    $0x1,%esi
  4022ba:	48 8b 3d df 49 20 00 	mov    0x2049df(%rip),%rdi        # 606ca0 <stderr@@GLIBC_2.2.5>
  4022c1:	b8 00 00 00 00       	mov    $0x0,%eax
  4022c6:	e8 a5 eb ff ff       	callq  400e70 <__fprintf_chk@plt>
  4022cb:	bf 01 00 00 00       	mov    $0x1,%edi
  4022d0:	e8 7b eb ff ff       	callq  400e50 <exit@plt>

00000000004022d5 <rio_writen>:
  4022d5:	41 55                	push   %r13
  4022d7:	41 54                	push   %r12
  4022d9:	55                   	push   %rbp
  4022da:	53                   	push   %rbx
  4022db:	48 83 ec 08          	sub    $0x8,%rsp
  4022df:	41 89 fc             	mov    %edi,%r12d
  4022e2:	48 89 f5             	mov    %rsi,%rbp
  4022e5:	49 89 d5             	mov    %rdx,%r13
  4022e8:	48 89 d3             	mov    %rdx,%rbx
  4022eb:	eb 28                	jmp    402315 <rio_writen+0x40>
  4022ed:	48 89 da             	mov    %rbx,%rdx
  4022f0:	48 89 ee             	mov    %rbp,%rsi
  4022f3:	44 89 e7             	mov    %r12d,%edi
  4022f6:	e8 e5 e9 ff ff       	callq  400ce0 <write@plt>
  4022fb:	48 85 c0             	test   %rax,%rax
  4022fe:	7f 0f                	jg     40230f <rio_writen+0x3a>
  402300:	e8 8b e9 ff ff       	callq  400c90 <__errno_location@plt>
  402305:	83 38 04             	cmpl   $0x4,(%rax)
  402308:	75 15                	jne    40231f <rio_writen+0x4a>
  40230a:	b8 00 00 00 00       	mov    $0x0,%eax
  40230f:	48 29 c3             	sub    %rax,%rbx
  402312:	48 01 c5             	add    %rax,%rbp
  402315:	48 85 db             	test   %rbx,%rbx
  402318:	75 d3                	jne    4022ed <rio_writen+0x18>
  40231a:	4c 89 e8             	mov    %r13,%rax
  40231d:	eb 07                	jmp    402326 <rio_writen+0x51>
  40231f:	48 c7 c0 ff ff ff ff 	mov    $0xffffffffffffffff,%rax
  402326:	48 83 c4 08          	add    $0x8,%rsp
  40232a:	5b                   	pop    %rbx
  40232b:	5d                   	pop    %rbp
  40232c:	41 5c                	pop    %r12
  40232e:	41 5d                	pop    %r13
  402330:	c3                   	retq   

0000000000402331 <rio_read>:
  402331:	41 55                	push   %r13
  402333:	41 54                	push   %r12
  402335:	55                   	push   %rbp
  402336:	53                   	push   %rbx
  402337:	48 83 ec 08          	sub    $0x8,%rsp
  40233b:	48 89 fb             	mov    %rdi,%rbx
  40233e:	49 89 f5             	mov    %rsi,%r13
  402341:	49 89 d4             	mov    %rdx,%r12
  402344:	eb 2e                	jmp    402374 <rio_read+0x43>
  402346:	48 8d 6b 10          	lea    0x10(%rbx),%rbp
  40234a:	8b 3b                	mov    (%rbx),%edi
  40234c:	ba 00 20 00 00       	mov    $0x2000,%edx
  402351:	48 89 ee             	mov    %rbp,%rsi
  402354:	e8 e7 e9 ff ff       	callq  400d40 <read@plt>
  402359:	89 43 04             	mov    %eax,0x4(%rbx)
  40235c:	85 c0                	test   %eax,%eax
  40235e:	79 0c                	jns    40236c <rio_read+0x3b>
  402360:	e8 2b e9 ff ff       	callq  400c90 <__errno_location@plt>
  402365:	83 38 04             	cmpl   $0x4,(%rax)
  402368:	74 0a                	je     402374 <rio_read+0x43>
  40236a:	eb 37                	jmp    4023a3 <rio_read+0x72>
  40236c:	85 c0                	test   %eax,%eax
  40236e:	74 3c                	je     4023ac <rio_read+0x7b>
  402370:	48 89 6b 08          	mov    %rbp,0x8(%rbx)
  402374:	8b 6b 04             	mov    0x4(%rbx),%ebp
  402377:	85 ed                	test   %ebp,%ebp
  402379:	7e cb                	jle    402346 <rio_read+0x15>
  40237b:	89 e8                	mov    %ebp,%eax
  40237d:	49 39 c4             	cmp    %rax,%r12
  402380:	77 03                	ja     402385 <rio_read+0x54>
  402382:	44 89 e5             	mov    %r12d,%ebp
  402385:	4c 63 e5             	movslq %ebp,%r12
  402388:	48 8b 73 08          	mov    0x8(%rbx),%rsi
  40238c:	4c 89 e2             	mov    %r12,%rdx
  40238f:	4c 89 ef             	mov    %r13,%rdi
  402392:	e8 09 ea ff ff       	callq  400da0 <memcpy@plt>
  402397:	4c 01 63 08          	add    %r12,0x8(%rbx)
  40239b:	29 6b 04             	sub    %ebp,0x4(%rbx)
  40239e:	4c 89 e0             	mov    %r12,%rax
  4023a1:	eb 0e                	jmp    4023b1 <rio_read+0x80>
  4023a3:	48 c7 c0 ff ff ff ff 	mov    $0xffffffffffffffff,%rax
  4023aa:	eb 05                	jmp    4023b1 <rio_read+0x80>
  4023ac:	b8 00 00 00 00       	mov    $0x0,%eax
  4023b1:	48 83 c4 08          	add    $0x8,%rsp
  4023b5:	5b                   	pop    %rbx
  4023b6:	5d                   	pop    %rbp
  4023b7:	41 5c                	pop    %r12
  4023b9:	41 5d                	pop    %r13
  4023bb:	c3                   	retq   

00000000004023bc <rio_readlineb>:
  4023bc:	41 55                	push   %r13
  4023be:	41 54                	push   %r12
  4023c0:	55                   	push   %rbp
  4023c1:	53                   	push   %rbx
  4023c2:	48 83 ec 18          	sub    $0x18,%rsp
  4023c6:	49 89 fd             	mov    %rdi,%r13
  4023c9:	48 89 f5             	mov    %rsi,%rbp
  4023cc:	49 89 d4             	mov    %rdx,%r12
  4023cf:	64 48 8b 04 25 28 00 	mov    %fs:0x28,%rax
  4023d6:	00 00 
  4023d8:	48 89 44 24 08       	mov    %rax,0x8(%rsp)
  4023dd:	31 c0                	xor    %eax,%eax
  4023df:	bb 01 00 00 00       	mov    $0x1,%ebx
  4023e4:	eb 3f                	jmp    402425 <rio_readlineb+0x69>
  4023e6:	ba 01 00 00 00       	mov    $0x1,%edx
  4023eb:	48 8d 74 24 07       	lea    0x7(%rsp),%rsi
  4023f0:	4c 89 ef             	mov    %r13,%rdi
  4023f3:	e8 39 ff ff ff       	callq  402331 <rio_read>
  4023f8:	83 f8 01             	cmp    $0x1,%eax
  4023fb:	75 15                	jne    402412 <rio_readlineb+0x56>
  4023fd:	48 8d 45 01          	lea    0x1(%rbp),%rax
  402401:	0f b6 54 24 07       	movzbl 0x7(%rsp),%edx
  402406:	88 55 00             	mov    %dl,0x0(%rbp)
  402409:	80 7c 24 07 0a       	cmpb   $0xa,0x7(%rsp)
  40240e:	75 0e                	jne    40241e <rio_readlineb+0x62>
  402410:	eb 1a                	jmp    40242c <rio_readlineb+0x70>
  402412:	85 c0                	test   %eax,%eax
  402414:	75 22                	jne    402438 <rio_readlineb+0x7c>
  402416:	48 83 fb 01          	cmp    $0x1,%rbx
  40241a:	75 13                	jne    40242f <rio_readlineb+0x73>
  40241c:	eb 23                	jmp    402441 <rio_readlineb+0x85>
  40241e:	48 83 c3 01          	add    $0x1,%rbx
  402422:	48 89 c5             	mov    %rax,%rbp
  402425:	4c 39 e3             	cmp    %r12,%rbx
  402428:	72 bc                	jb     4023e6 <rio_readlineb+0x2a>
  40242a:	eb 03                	jmp    40242f <rio_readlineb+0x73>
  40242c:	48 89 c5             	mov    %rax,%rbp
  40242f:	c6 45 00 00          	movb   $0x0,0x0(%rbp)
  402433:	48 89 d8             	mov    %rbx,%rax
  402436:	eb 0e                	jmp    402446 <rio_readlineb+0x8a>
  402438:	48 c7 c0 ff ff ff ff 	mov    $0xffffffffffffffff,%rax
  40243f:	eb 05                	jmp    402446 <rio_readlineb+0x8a>
  402441:	b8 00 00 00 00       	mov    $0x0,%eax
  402446:	48 8b 4c 24 08       	mov    0x8(%rsp),%rcx
  40244b:	64 48 33 0c 25 28 00 	xor    %fs:0x28,%rcx
  402452:	00 00 
  402454:	74 05                	je     40245b <rio_readlineb+0x9f>
  402456:	e8 95 e8 ff ff       	callq  400cf0 <__stack_chk_fail@plt>
  40245b:	48 83 c4 18          	add    $0x18,%rsp
  40245f:	5b                   	pop    %rbx
  402460:	5d                   	pop    %rbp
  402461:	41 5c                	pop    %r12
  402463:	41 5d                	pop    %r13
  402465:	c3                   	retq   

0000000000402466 <urlencode>:
  402466:	41 54                	push   %r12
  402468:	55                   	push   %rbp
  402469:	53                   	push   %rbx
  40246a:	48 83 ec 10          	sub    $0x10,%rsp
  40246e:	48 89 fb             	mov    %rdi,%rbx
  402471:	48 89 f5             	mov    %rsi,%rbp
  402474:	64 48 8b 04 25 28 00 	mov    %fs:0x28,%rax
  40247b:	00 00 
  40247d:	48 89 44 24 08       	mov    %rax,0x8(%rsp)
  402482:	31 c0                	xor    %eax,%eax
  402484:	48 c7 c1 ff ff ff ff 	mov    $0xffffffffffffffff,%rcx
  40248b:	f2 ae                	repnz scas %es:(%rdi),%al
  40248d:	48 f7 d1             	not    %rcx
  402490:	8d 41 ff             	lea    -0x1(%rcx),%eax
  402493:	e9 aa 00 00 00       	jmpq   402542 <urlencode+0xdc>
  402498:	44 0f b6 03          	movzbl (%rbx),%r8d
  40249c:	41 80 f8 2a          	cmp    $0x2a,%r8b
  4024a0:	0f 94 c2             	sete   %dl
  4024a3:	41 80 f8 2d          	cmp    $0x2d,%r8b
  4024a7:	0f 94 c0             	sete   %al
  4024aa:	08 c2                	or     %al,%dl
  4024ac:	75 24                	jne    4024d2 <urlencode+0x6c>
  4024ae:	41 80 f8 2e          	cmp    $0x2e,%r8b
  4024b2:	74 1e                	je     4024d2 <urlencode+0x6c>
  4024b4:	41 80 f8 5f          	cmp    $0x5f,%r8b
  4024b8:	74 18                	je     4024d2 <urlencode+0x6c>
  4024ba:	41 8d 40 d0          	lea    -0x30(%r8),%eax
  4024be:	3c 09                	cmp    $0x9,%al
  4024c0:	76 10                	jbe    4024d2 <urlencode+0x6c>
  4024c2:	41 8d 40 bf          	lea    -0x41(%r8),%eax
  4024c6:	3c 19                	cmp    $0x19,%al
  4024c8:	76 08                	jbe    4024d2 <urlencode+0x6c>
  4024ca:	41 8d 40 9f          	lea    -0x61(%r8),%eax
  4024ce:	3c 19                	cmp    $0x19,%al
  4024d0:	77 0a                	ja     4024dc <urlencode+0x76>
  4024d2:	44 88 45 00          	mov    %r8b,0x0(%rbp)
  4024d6:	48 8d 6d 01          	lea    0x1(%rbp),%rbp
  4024da:	eb 5f                	jmp    40253b <urlencode+0xd5>
  4024dc:	41 80 f8 20          	cmp    $0x20,%r8b
  4024e0:	75 0a                	jne    4024ec <urlencode+0x86>
  4024e2:	c6 45 00 2b          	movb   $0x2b,0x0(%rbp)
  4024e6:	48 8d 6d 01          	lea    0x1(%rbp),%rbp
  4024ea:	eb 4f                	jmp    40253b <urlencode+0xd5>
  4024ec:	41 8d 40 e0          	lea    -0x20(%r8),%eax
  4024f0:	3c 5f                	cmp    $0x5f,%al
  4024f2:	0f 96 c2             	setbe  %dl
  4024f5:	41 80 f8 09          	cmp    $0x9,%r8b
  4024f9:	0f 94 c0             	sete   %al
  4024fc:	08 c2                	or     %al,%dl
  4024fe:	74 50                	je     402550 <urlencode+0xea>
  402500:	45 0f b6 c0          	movzbl %r8b,%r8d
  402504:	b9 58 48 40 00       	mov    $0x404858,%ecx
  402509:	ba 08 00 00 00       	mov    $0x8,%edx
  40250e:	be 01 00 00 00       	mov    $0x1,%esi
  402513:	48 89 e7             	mov    %rsp,%rdi
  402516:	b8 00 00 00 00       	mov    $0x0,%eax
  40251b:	e8 60 e9 ff ff       	callq  400e80 <__sprintf_chk@plt>
  402520:	0f b6 04 24          	movzbl (%rsp),%eax
  402524:	88 45 00             	mov    %al,0x0(%rbp)
  402527:	0f b6 44 24 01       	movzbl 0x1(%rsp),%eax
  40252c:	88 45 01             	mov    %al,0x1(%rbp)
  40252f:	0f b6 44 24 02       	movzbl 0x2(%rsp),%eax
  402534:	88 45 02             	mov    %al,0x2(%rbp)
  402537:	48 8d 6d 03          	lea    0x3(%rbp),%rbp
  40253b:	48 83 c3 01          	add    $0x1,%rbx
  40253f:	44 89 e0             	mov    %r12d,%eax
  402542:	44 8d 60 ff          	lea    -0x1(%rax),%r12d
  402546:	85 c0                	test   %eax,%eax
  402548:	0f 85 4a ff ff ff    	jne    402498 <urlencode+0x32>
  40254e:	eb 05                	jmp    402555 <urlencode+0xef>
  402550:	b8 ff ff ff ff       	mov    $0xffffffff,%eax
  402555:	48 8b 74 24 08       	mov    0x8(%rsp),%rsi
  40255a:	64 48 33 34 25 28 00 	xor    %fs:0x28,%rsi
  402561:	00 00 
  402563:	74 05                	je     40256a <urlencode+0x104>
  402565:	e8 86 e7 ff ff       	callq  400cf0 <__stack_chk_fail@plt>
  40256a:	48 83 c4 10          	add    $0x10,%rsp
  40256e:	5b                   	pop    %rbx
  40256f:	5d                   	pop    %rbp
  402570:	41 5c                	pop    %r12
  402572:	c3                   	retq   

0000000000402573 <submitr>:
  402573:	41 57                	push   %r15
  402575:	41 56                	push   %r14
  402577:	41 55                	push   %r13
  402579:	41 54                	push   %r12
  40257b:	55                   	push   %rbp
  40257c:	53                   	push   %rbx
  40257d:	48 81 ec 58 a0 00 00 	sub    $0xa058,%rsp
  402584:	49 89 fc             	mov    %rdi,%r12
  402587:	89 74 24 04          	mov    %esi,0x4(%rsp)
  40258b:	49 89 d7             	mov    %rdx,%r15
  40258e:	49 89 ce             	mov    %rcx,%r14
  402591:	4c 89 44 24 08       	mov    %r8,0x8(%rsp)
  402596:	4d 89 cd             	mov    %r9,%r13
  402599:	48 8b 9c 24 90 a0 00 	mov    0xa090(%rsp),%rbx
  4025a0:	00 
  4025a1:	64 48 8b 04 25 28 00 	mov    %fs:0x28,%rax
  4025a8:	00 00 
  4025aa:	48 89 84 24 48 a0 00 	mov    %rax,0xa048(%rsp)
  4025b1:	00 
  4025b2:	31 c0                	xor    %eax,%eax
  4025b4:	c7 44 24 1c 00 00 00 	movl   $0x0,0x1c(%rsp)
  4025bb:	00 
  4025bc:	ba 00 00 00 00       	mov    $0x0,%edx
  4025c1:	be 01 00 00 00       	mov    $0x1,%esi
  4025c6:	bf 02 00 00 00       	mov    $0x2,%edi
  4025cb:	e8 c0 e8 ff ff       	callq  400e90 <socket@plt>
  4025d0:	85 c0                	test   %eax,%eax
  4025d2:	79 4e                	jns    402622 <submitr+0xaf>
  4025d4:	48 b8 45 72 72 6f 72 	movabs $0x43203a726f727245,%rax
  4025db:	3a 20 43 
  4025de:	48 89 03             	mov    %rax,(%rbx)
  4025e1:	48 b8 6c 69 65 6e 74 	movabs $0x6e7520746e65696c,%rax
  4025e8:	20 75 6e 
  4025eb:	48 89 43 08          	mov    %rax,0x8(%rbx)
  4025ef:	48 b8 61 62 6c 65 20 	movabs $0x206f7420656c6261,%rax
  4025f6:	74 6f 20 
  4025f9:	48 89 43 10          	mov    %rax,0x10(%rbx)
  4025fd:	48 b8 63 72 65 61 74 	movabs $0x7320657461657263,%rax
  402604:	65 20 73 
  402607:	48 89 43 18          	mov    %rax,0x18(%rbx)
  40260b:	c7 43 20 6f 63 6b 65 	movl   $0x656b636f,0x20(%rbx)
  402612:	66 c7 43 24 74 00    	movw   $0x74,0x24(%rbx)
  402618:	b8 ff ff ff ff       	mov    $0xffffffff,%eax
  40261d:	e9 97 06 00 00       	jmpq   402cb9 <submitr+0x746>
  402622:	89 c5                	mov    %eax,%ebp
  402624:	4c 89 e7             	mov    %r12,%rdi
  402627:	e8 44 e7 ff ff       	callq  400d70 <gethostbyname@plt>
  40262c:	48 85 c0             	test   %rax,%rax
  40262f:	75 67                	jne    402698 <submitr+0x125>
  402631:	48 b8 45 72 72 6f 72 	movabs $0x44203a726f727245,%rax
  402638:	3a 20 44 
  40263b:	48 89 03             	mov    %rax,(%rbx)
  40263e:	48 b8 4e 53 20 69 73 	movabs $0x6e7520736920534e,%rax
  402645:	20 75 6e 
  402648:	48 89 43 08          	mov    %rax,0x8(%rbx)
  40264c:	48 b8 61 62 6c 65 20 	movabs $0x206f7420656c6261,%rax
  402653:	74 6f 20 
  402656:	48 89 43 10          	mov    %rax,0x10(%rbx)
  40265a:	48 b8 72 65 73 6f 6c 	movabs $0x2065766c6f736572,%rax
  402661:	76 65 20 
  402664:	48 89 43 18          	mov    %rax,0x18(%rbx)
  402668:	48 b8 73 65 72 76 65 	movabs $0x6120726576726573,%rax
  40266f:	72 20 61 
  402672:	48 89 43 20          	mov    %rax,0x20(%rbx)
  402676:	c7 43 28 64 64 72 65 	movl   $0x65726464,0x28(%rbx)
  40267d:	66 c7 43 2c 73 73    	movw   $0x7373,0x2c(%rbx)
  402683:	c6 43 2e 00          	movb   $0x0,0x2e(%rbx)
  402687:	89 ef                	mov    %ebp,%edi
  402689:	e8 a2 e6 ff ff       	callq  400d30 <close@plt>
  40268e:	b8 ff ff ff ff       	mov    $0xffffffff,%eax
  402693:	e9 21 06 00 00       	jmpq   402cb9 <submitr+0x746>
  402698:	48 c7 44 24 20 00 00 	movq   $0x0,0x20(%rsp)
  40269f:	00 00 
  4026a1:	48 c7 44 24 28 00 00 	movq   $0x0,0x28(%rsp)
  4026a8:	00 00 
  4026aa:	66 c7 44 24 20 02 00 	movw   $0x2,0x20(%rsp)
  4026b1:	48 63 50 14          	movslq 0x14(%rax),%rdx
  4026b5:	48 8b 40 18          	mov    0x18(%rax),%rax
  4026b9:	48 8b 30             	mov    (%rax),%rsi
  4026bc:	48 8d 7c 24 24       	lea    0x24(%rsp),%rdi
  4026c1:	b9 0c 00 00 00       	mov    $0xc,%ecx
  4026c6:	e8 b5 e6 ff ff       	callq  400d80 <__memmove_chk@plt>
  4026cb:	0f b7 44 24 04       	movzwl 0x4(%rsp),%eax
  4026d0:	66 c1 c8 08          	ror    $0x8,%ax
  4026d4:	66 89 44 24 22       	mov    %ax,0x22(%rsp)
  4026d9:	ba 10 00 00 00       	mov    $0x10,%edx
  4026de:	48 8d 74 24 20       	lea    0x20(%rsp),%rsi
  4026e3:	89 ef                	mov    %ebp,%edi
  4026e5:	e8 76 e7 ff ff       	callq  400e60 <connect@plt>
  4026ea:	85 c0                	test   %eax,%eax
  4026ec:	79 59                	jns    402747 <submitr+0x1d4>
  4026ee:	48 b8 45 72 72 6f 72 	movabs $0x55203a726f727245,%rax
  4026f5:	3a 20 55 
  4026f8:	48 89 03             	mov    %rax,(%rbx)
  4026fb:	48 b8 6e 61 62 6c 65 	movabs $0x6f7420656c62616e,%rax
  402702:	20 74 6f 
  402705:	48 89 43 08          	mov    %rax,0x8(%rbx)
  402709:	48 b8 20 63 6f 6e 6e 	movabs $0x7463656e6e6f6320,%rax
  402710:	65 63 74 
  402713:	48 89 43 10          	mov    %rax,0x10(%rbx)
  402717:	48 b8 20 74 6f 20 74 	movabs $0x20656874206f7420,%rax
  40271e:	68 65 20 
  402721:	48 89 43 18          	mov    %rax,0x18(%rbx)
  402725:	c7 43 20 73 65 72 76 	movl   $0x76726573,0x20(%rbx)
  40272c:	66 c7 43 24 65 72    	movw   $0x7265,0x24(%rbx)
  402732:	c6 43 26 00          	movb   $0x0,0x26(%rbx)
  402736:	89 ef                	mov    %ebp,%edi
  402738:	e8 f3 e5 ff ff       	callq  400d30 <close@plt>
  40273d:	b8 ff ff ff ff       	mov    $0xffffffff,%eax
  402742:	e9 72 05 00 00       	jmpq   402cb9 <submitr+0x746>
  402747:	48 c7 c6 ff ff ff ff 	mov    $0xffffffffffffffff,%rsi
  40274e:	b8 00 00 00 00       	mov    $0x0,%eax
  402753:	48 89 f1             	mov    %rsi,%rcx
  402756:	4c 89 ef             	mov    %r13,%rdi
  402759:	f2 ae                	repnz scas %es:(%rdi),%al
  40275b:	48 f7 d1             	not    %rcx
  40275e:	48 89 ca             	mov    %rcx,%rdx
  402761:	48 89 f1             	mov    %rsi,%rcx
  402764:	4c 89 ff             	mov    %r15,%rdi
  402767:	f2 ae                	repnz scas %es:(%rdi),%al
  402769:	48 f7 d1             	not    %rcx
  40276c:	49 89 c8             	mov    %rcx,%r8
  40276f:	48 89 f1             	mov    %rsi,%rcx
  402772:	4c 89 f7             	mov    %r14,%rdi
  402775:	f2 ae                	repnz scas %es:(%rdi),%al
  402777:	48 f7 d1             	not    %rcx
  40277a:	4d 8d 44 08 fe       	lea    -0x2(%r8,%rcx,1),%r8
  40277f:	48 89 f1             	mov    %rsi,%rcx
  402782:	48 8b 7c 24 08       	mov    0x8(%rsp),%rdi
  402787:	f2 ae                	repnz scas %es:(%rdi),%al
  402789:	48 89 c8             	mov    %rcx,%rax
  40278c:	48 f7 d0             	not    %rax
  40278f:	49 8d 4c 00 ff       	lea    -0x1(%r8,%rax,1),%rcx
  402794:	48 8d 44 52 fd       	lea    -0x3(%rdx,%rdx,2),%rax
  402799:	48 8d 84 01 80 00 00 	lea    0x80(%rcx,%rax,1),%rax
  4027a0:	00 
  4027a1:	48 3d 00 20 00 00    	cmp    $0x2000,%rax
  4027a7:	76 72                	jbe    40281b <submitr+0x2a8>
  4027a9:	48 b8 45 72 72 6f 72 	movabs $0x52203a726f727245,%rax
  4027b0:	3a 20 52 
  4027b3:	48 89 03             	mov    %rax,(%rbx)
  4027b6:	48 b8 65 73 75 6c 74 	movabs $0x747320746c757365,%rax
  4027bd:	20 73 74 
  4027c0:	48 89 43 08          	mov    %rax,0x8(%rbx)
  4027c4:	48 b8 72 69 6e 67 20 	movabs $0x6f6f7420676e6972,%rax
  4027cb:	74 6f 6f 
  4027ce:	48 89 43 10          	mov    %rax,0x10(%rbx)
  4027d2:	48 b8 20 6c 61 72 67 	movabs $0x202e656772616c20,%rax
  4027d9:	65 2e 20 
  4027dc:	48 89 43 18          	mov    %rax,0x18(%rbx)
  4027e0:	48 b8 49 6e 63 72 65 	movabs $0x6573616572636e49,%rax
  4027e7:	61 73 65 
  4027ea:	48 89 43 20          	mov    %rax,0x20(%rbx)
  4027ee:	48 b8 20 53 55 42 4d 	movabs $0x5254494d42555320,%rax
  4027f5:	49 54 52 
  4027f8:	48 89 43 28          	mov    %rax,0x28(%rbx)
  4027fc:	48 b8 5f 4d 41 58 42 	movabs $0x46554258414d5f,%rax
  402803:	55 46 00 
  402806:	48 89 43 30          	mov    %rax,0x30(%rbx)
  40280a:	89 ef                	mov    %ebp,%edi
  40280c:	e8 1f e5 ff ff       	callq  400d30 <close@plt>
  402811:	b8 ff ff ff ff       	mov    $0xffffffff,%eax
  402816:	e9 9e 04 00 00       	jmpq   402cb9 <submitr+0x746>
  40281b:	48 8d b4 24 40 40 00 	lea    0x4040(%rsp),%rsi
  402822:	00 
  402823:	b9 00 04 00 00       	mov    $0x400,%ecx
  402828:	b8 00 00 00 00       	mov    $0x0,%eax
  40282d:	48 89 f7             	mov    %rsi,%rdi
  402830:	f3 48 ab             	rep stos %rax,%es:(%rdi)
  402833:	4c 89 ef             	mov    %r13,%rdi
  402836:	e8 2b fc ff ff       	callq  402466 <urlencode>
  40283b:	85 c0                	test   %eax,%eax
  40283d:	0f 89 8a 00 00 00    	jns    4028cd <submitr+0x35a>
  402843:	48 b8 45 72 72 6f 72 	movabs $0x52203a726f727245,%rax
  40284a:	3a 20 52 
  40284d:	48 89 03             	mov    %rax,(%rbx)
  402850:	48 b8 65 73 75 6c 74 	movabs $0x747320746c757365,%rax
  402857:	20 73 74 
  40285a:	48 89 43 08          	mov    %rax,0x8(%rbx)
  40285e:	48 b8 72 69 6e 67 20 	movabs $0x6e6f6320676e6972,%rax
  402865:	63 6f 6e 
  402868:	48 89 43 10          	mov    %rax,0x10(%rbx)
  40286c:	48 b8 74 61 69 6e 73 	movabs $0x6e6120736e696174,%rax
  402873:	20 61 6e 
  402876:	48 89 43 18          	mov    %rax,0x18(%rbx)
  40287a:	48 b8 20 69 6c 6c 65 	movabs $0x6c6167656c6c6920,%rax
  402881:	67 61 6c 
  402884:	48 89 43 20          	mov    %rax,0x20(%rbx)
  402888:	48 b8 20 6f 72 20 75 	movabs $0x72706e7520726f20,%rax
  40288f:	6e 70 72 
  402892:	48 89 43 28          	mov    %rax,0x28(%rbx)
  402896:	48 b8 69 6e 74 61 62 	movabs $0x20656c6261746e69,%rax
  40289d:	6c 65 20 
  4028a0:	48 89 43 30          	mov    %rax,0x30(%rbx)
  4028a4:	48 b8 63 68 61 72 61 	movabs $0x6574636172616863,%rax
  4028ab:	63 74 65 
  4028ae:	48 89 43 38          	mov    %rax,0x38(%rbx)
  4028b2:	66 c7 43 40 72 2e    	movw   $0x2e72,0x40(%rbx)
  4028b8:	c6 43 42 00          	movb   $0x0,0x42(%rbx)
  4028bc:	89 ef                	mov    %ebp,%edi
  4028be:	e8 6d e4 ff ff       	callq  400d30 <close@plt>
  4028c3:	b8 ff ff ff ff       	mov    $0xffffffff,%eax
  4028c8:	e9 ec 03 00 00       	jmpq   402cb9 <submitr+0x746>
  4028cd:	4c 8d ac 24 40 20 00 	lea    0x2040(%rsp),%r13
  4028d4:	00 
  4028d5:	41 54                	push   %r12
  4028d7:	48 8d 84 24 48 40 00 	lea    0x4048(%rsp),%rax
  4028de:	00 
  4028df:	50                   	push   %rax
  4028e0:	4d 89 f9             	mov    %r15,%r9
  4028e3:	4d 89 f0             	mov    %r14,%r8
  4028e6:	b9 e8 47 40 00       	mov    $0x4047e8,%ecx
  4028eb:	ba 00 20 00 00       	mov    $0x2000,%edx
  4028f0:	be 01 00 00 00       	mov    $0x1,%esi
  4028f5:	4c 89 ef             	mov    %r13,%rdi
  4028f8:	b8 00 00 00 00       	mov    $0x0,%eax
  4028fd:	e8 7e e5 ff ff       	callq  400e80 <__sprintf_chk@plt>
  402902:	b8 00 00 00 00       	mov    $0x0,%eax
  402907:	48 c7 c1 ff ff ff ff 	mov    $0xffffffffffffffff,%rcx
  40290e:	4c 89 ef             	mov    %r13,%rdi
  402911:	f2 ae                	repnz scas %es:(%rdi),%al
  402913:	48 f7 d1             	not    %rcx
  402916:	48 8d 51 ff          	lea    -0x1(%rcx),%rdx
  40291a:	4c 89 ee             	mov    %r13,%rsi
  40291d:	89 ef                	mov    %ebp,%edi
  40291f:	e8 b1 f9 ff ff       	callq  4022d5 <rio_writen>
  402924:	48 83 c4 10          	add    $0x10,%rsp
  402928:	48 85 c0             	test   %rax,%rax
  40292b:	79 6e                	jns    40299b <submitr+0x428>
  40292d:	48 b8 45 72 72 6f 72 	movabs $0x43203a726f727245,%rax
  402934:	3a 20 43 
  402937:	48 89 03             	mov    %rax,(%rbx)
  40293a:	48 b8 6c 69 65 6e 74 	movabs $0x6e7520746e65696c,%rax
  402941:	20 75 6e 
  402944:	48 89 43 08          	mov    %rax,0x8(%rbx)
  402948:	48 b8 61 62 6c 65 20 	movabs $0x206f7420656c6261,%rax
  40294f:	74 6f 20 
  402952:	48 89 43 10          	mov    %rax,0x10(%rbx)
  402956:	48 b8 77 72 69 74 65 	movabs $0x6f74206574697277,%rax
  40295d:	20 74 6f 
  402960:	48 89 43 18          	mov    %rax,0x18(%rbx)
  402964:	48 b8 20 74 68 65 20 	movabs $0x7365722065687420,%rax
  40296b:	72 65 73 
  40296e:	48 89 43 20          	mov    %rax,0x20(%rbx)
  402972:	48 b8 75 6c 74 20 73 	movabs $0x7672657320746c75,%rax
  402979:	65 72 76 
  40297c:	48 89 43 28          	mov    %rax,0x28(%rbx)
  402980:	66 c7 43 30 65 72    	movw   $0x7265,0x30(%rbx)
  402986:	c6 43 32 00          	movb   $0x0,0x32(%rbx)
  40298a:	89 ef                	mov    %ebp,%edi
  40298c:	e8 9f e3 ff ff       	callq  400d30 <close@plt>
  402991:	b8 ff ff ff ff       	mov    $0xffffffff,%eax
  402996:	e9 1e 03 00 00       	jmpq   402cb9 <submitr+0x746>
  40299b:	89 ee                	mov    %ebp,%esi
  40299d:	48 8d 7c 24 30       	lea    0x30(%rsp),%rdi
  4029a2:	e8 ee f8 ff ff       	callq  402295 <rio_readinitb>
  4029a7:	ba 00 20 00 00       	mov    $0x2000,%edx
  4029ac:	48 8d b4 24 40 20 00 	lea    0x2040(%rsp),%rsi
  4029b3:	00 
  4029b4:	48 8d 7c 24 30       	lea    0x30(%rsp),%rdi
  4029b9:	e8 fe f9 ff ff       	callq  4023bc <rio_readlineb>
  4029be:	48 85 c0             	test   %rax,%rax
  4029c1:	7f 7d                	jg     402a40 <submitr+0x4cd>
  4029c3:	48 b8 45 72 72 6f 72 	movabs $0x43203a726f727245,%rax
  4029ca:	3a 20 43 
  4029cd:	48 89 03             	mov    %rax,(%rbx)
  4029d0:	48 b8 6c 69 65 6e 74 	movabs $0x6e7520746e65696c,%rax
  4029d7:	20 75 6e 
  4029da:	48 89 43 08          	mov    %rax,0x8(%rbx)
  4029de:	48 b8 61 62 6c 65 20 	movabs $0x206f7420656c6261,%rax
  4029e5:	74 6f 20 
  4029e8:	48 89 43 10          	mov    %rax,0x10(%rbx)
  4029ec:	48 b8 72 65 61 64 20 	movabs $0x7269662064616572,%rax
  4029f3:	66 69 72 
  4029f6:	48 89 43 18          	mov    %rax,0x18(%rbx)
  4029fa:	48 b8 73 74 20 68 65 	movabs $0x6564616568207473,%rax
  402a01:	61 64 65 
  402a04:	48 89 43 20          	mov    %rax,0x20(%rbx)
  402a08:	48 b8 72 20 66 72 6f 	movabs $0x72206d6f72662072,%rax
  402a0f:	6d 20 72 
  402a12:	48 89 43 28          	mov    %rax,0x28(%rbx)
  402a16:	48 b8 65 73 75 6c 74 	movabs $0x657320746c757365,%rax
  402a1d:	20 73 65 
  402a20:	48 89 43 30          	mov    %rax,0x30(%rbx)
  402a24:	c7 43 38 72 76 65 72 	movl   $0x72657672,0x38(%rbx)
  402a2b:	c6 43 3c 00          	movb   $0x0,0x3c(%rbx)
  402a2f:	89 ef                	mov    %ebp,%edi
  402a31:	e8 fa e2 ff ff       	callq  400d30 <close@plt>
  402a36:	b8 ff ff ff ff       	mov    $0xffffffff,%eax
  402a3b:	e9 79 02 00 00       	jmpq   402cb9 <submitr+0x746>
  402a40:	4c 8d 84 24 40 80 00 	lea    0x8040(%rsp),%r8
  402a47:	00 
  402a48:	48 8d 4c 24 1c       	lea    0x1c(%rsp),%rcx
  402a4d:	48 8d 94 24 40 60 00 	lea    0x6040(%rsp),%rdx
  402a54:	00 
  402a55:	be 5f 48 40 00       	mov    $0x40485f,%esi
  402a5a:	48 8d bc 24 40 20 00 	lea    0x2040(%rsp),%rdi
  402a61:	00 
  402a62:	b8 00 00 00 00       	mov    $0x0,%eax
  402a67:	e8 74 e3 ff ff       	callq  400de0 <__isoc99_sscanf@plt>
  402a6c:	e9 95 00 00 00       	jmpq   402b06 <submitr+0x593>
  402a71:	ba 00 20 00 00       	mov    $0x2000,%edx
  402a76:	48 8d b4 24 40 20 00 	lea    0x2040(%rsp),%rsi
  402a7d:	00 
  402a7e:	48 8d 7c 24 30       	lea    0x30(%rsp),%rdi
  402a83:	e8 34 f9 ff ff       	callq  4023bc <rio_readlineb>
  402a88:	48 85 c0             	test   %rax,%rax
  402a8b:	7f 79                	jg     402b06 <submitr+0x593>
  402a8d:	48 b8 45 72 72 6f 72 	movabs $0x43203a726f727245,%rax
  402a94:	3a 20 43 
  402a97:	48 89 03             	mov    %rax,(%rbx)
  402a9a:	48 b8 6c 69 65 6e 74 	movabs $0x6e7520746e65696c,%rax
  402aa1:	20 75 6e 
  402aa4:	48 89 43 08          	mov    %rax,0x8(%rbx)
  402aa8:	48 b8 61 62 6c 65 20 	movabs $0x206f7420656c6261,%rax
  402aaf:	74 6f 20 
  402ab2:	48 89 43 10          	mov    %rax,0x10(%rbx)
  402ab6:	48 b8 72 65 61 64 20 	movabs $0x6165682064616572,%rax
  402abd:	68 65 61 
  402ac0:	48 89 43 18          	mov    %rax,0x18(%rbx)
  402ac4:	48 b8 64 65 72 73 20 	movabs $0x6f72662073726564,%rax
  402acb:	66 72 6f 
  402ace:	48 89 43 20          	mov    %rax,0x20(%rbx)
  402ad2:	48 b8 6d 20 74 68 65 	movabs $0x657220656874206d,%rax
  402ad9:	20 72 65 
  402adc:	48 89 43 28          	mov    %rax,0x28(%rbx)
  402ae0:	48 b8 73 75 6c 74 20 	movabs $0x72657320746c7573,%rax
  402ae7:	73 65 72 
  402aea:	48 89 43 30          	mov    %rax,0x30(%rbx)
  402aee:	c7 43 38 76 65 72 00 	movl   $0x726576,0x38(%rbx)
  402af5:	89 ef                	mov    %ebp,%edi
  402af7:	e8 34 e2 ff ff       	callq  400d30 <close@plt>
  402afc:	b8 ff ff ff ff       	mov    $0xffffffff,%eax
  402b01:	e9 b3 01 00 00       	jmpq   402cb9 <submitr+0x746>
  402b06:	0f b6 94 24 40 20 00 	movzbl 0x2040(%rsp),%edx
  402b0d:	00 
  402b0e:	b8 0d 00 00 00       	mov    $0xd,%eax
  402b13:	29 d0                	sub    %edx,%eax
  402b15:	75 1b                	jne    402b32 <submitr+0x5bf>
  402b17:	0f b6 94 24 41 20 00 	movzbl 0x2041(%rsp),%edx
  402b1e:	00 
  402b1f:	b8 0a 00 00 00       	mov    $0xa,%eax
  402b24:	29 d0                	sub    %edx,%eax
  402b26:	75 0a                	jne    402b32 <submitr+0x5bf>
  402b28:	0f b6 84 24 42 20 00 	movzbl 0x2042(%rsp),%eax
  402b2f:	00 
  402b30:	f7 d8                	neg    %eax
  402b32:	85 c0                	test   %eax,%eax
  402b34:	0f 85 37 ff ff ff    	jne    402a71 <submitr+0x4fe>
  402b3a:	ba 00 20 00 00       	mov    $0x2000,%edx
  402b3f:	48 8d b4 24 40 20 00 	lea    0x2040(%rsp),%rsi
  402b46:	00 
  402b47:	48 8d 7c 24 30       	lea    0x30(%rsp),%rdi
  402b4c:	e8 6b f8 ff ff       	callq  4023bc <rio_readlineb>
  402b51:	48 85 c0             	test   %rax,%rax
  402b54:	0f 8f 83 00 00 00    	jg     402bdd <submitr+0x66a>
  402b5a:	48 b8 45 72 72 6f 72 	movabs $0x43203a726f727245,%rax
  402b61:	3a 20 43 
  402b64:	48 89 03             	mov    %rax,(%rbx)
  402b67:	48 b8 6c 69 65 6e 74 	movabs $0x6e7520746e65696c,%rax
  402b6e:	20 75 6e 
  402b71:	48 89 43 08          	mov    %rax,0x8(%rbx)
  402b75:	48 b8 61 62 6c 65 20 	movabs $0x206f7420656c6261,%rax
  402b7c:	74 6f 20 
  402b7f:	48 89 43 10          	mov    %rax,0x10(%rbx)
  402b83:	48 b8 72 65 61 64 20 	movabs $0x6174732064616572,%rax
  402b8a:	73 74 61 
  402b8d:	48 89 43 18          	mov    %rax,0x18(%rbx)
  402b91:	48 b8 74 75 73 20 6d 	movabs $0x7373656d20737574,%rax
  402b98:	65 73 73 
  402b9b:	48 89 43 20          	mov    %rax,0x20(%rbx)
  402b9f:	48 b8 61 67 65 20 66 	movabs $0x6d6f726620656761,%rax
  402ba6:	72 6f 6d 
  402ba9:	48 89 43 28          	mov    %rax,0x28(%rbx)
  402bad:	48 b8 20 72 65 73 75 	movabs $0x20746c7573657220,%rax
  402bb4:	6c 74 20 
  402bb7:	48 89 43 30          	mov    %rax,0x30(%rbx)
  402bbb:	c7 43 38 73 65 72 76 	movl   $0x76726573,0x38(%rbx)
  402bc2:	66 c7 43 3c 65 72    	movw   $0x7265,0x3c(%rbx)
  402bc8:	c6 43 3e 00          	movb   $0x0,0x3e(%rbx)
  402bcc:	89 ef                	mov    %ebp,%edi
  402bce:	e8 5d e1 ff ff       	callq  400d30 <close@plt>
  402bd3:	b8 ff ff ff ff       	mov    $0xffffffff,%eax
  402bd8:	e9 dc 00 00 00       	jmpq   402cb9 <submitr+0x746>
  402bdd:	44 8b 44 24 1c       	mov    0x1c(%rsp),%r8d
  402be2:	41 81 f8 c8 00 00 00 	cmp    $0xc8,%r8d
  402be9:	74 37                	je     402c22 <submitr+0x6af>
  402beb:	4c 8d 8c 24 40 80 00 	lea    0x8040(%rsp),%r9
  402bf2:	00 
  402bf3:	b9 28 48 40 00       	mov    $0x404828,%ecx
  402bf8:	48 c7 c2 ff ff ff ff 	mov    $0xffffffffffffffff,%rdx
  402bff:	be 01 00 00 00       	mov    $0x1,%esi
  402c04:	48 89 df             	mov    %rbx,%rdi
  402c07:	b8 00 00 00 00       	mov    $0x0,%eax
  402c0c:	e8 6f e2 ff ff       	callq  400e80 <__sprintf_chk@plt>
  402c11:	89 ef                	mov    %ebp,%edi
  402c13:	e8 18 e1 ff ff       	callq  400d30 <close@plt>
  402c18:	b8 ff ff ff ff       	mov    $0xffffffff,%eax
  402c1d:	e9 97 00 00 00       	jmpq   402cb9 <submitr+0x746>
  402c22:	48 8d b4 24 40 20 00 	lea    0x2040(%rsp),%rsi
  402c29:	00 
  402c2a:	48 89 df             	mov    %rbx,%rdi
  402c2d:	e8 8e e0 ff ff       	callq  400cc0 <strcpy@plt>
  402c32:	89 ef                	mov    %ebp,%edi
  402c34:	e8 f7 e0 ff ff       	callq  400d30 <close@plt>
  402c39:	0f b6 03             	movzbl (%rbx),%eax
  402c3c:	ba 4f 00 00 00       	mov    $0x4f,%edx
  402c41:	29 c2                	sub    %eax,%edx
  402c43:	75 22                	jne    402c67 <submitr+0x6f4>
  402c45:	0f b6 4b 01          	movzbl 0x1(%rbx),%ecx
  402c49:	b8 4b 00 00 00       	mov    $0x4b,%eax
  402c4e:	29 c8                	sub    %ecx,%eax
  402c50:	75 17                	jne    402c69 <submitr+0x6f6>
  402c52:	0f b6 4b 02          	movzbl 0x2(%rbx),%ecx
  402c56:	b8 0a 00 00 00       	mov    $0xa,%eax
  402c5b:	29 c8                	sub    %ecx,%eax
  402c5d:	75 0a                	jne    402c69 <submitr+0x6f6>
  402c5f:	0f b6 43 03          	movzbl 0x3(%rbx),%eax
  402c63:	f7 d8                	neg    %eax
  402c65:	eb 02                	jmp    402c69 <submitr+0x6f6>
  402c67:	89 d0                	mov    %edx,%eax
  402c69:	85 c0                	test   %eax,%eax
  402c6b:	74 40                	je     402cad <submitr+0x73a>
  402c6d:	bf 70 48 40 00       	mov    $0x404870,%edi
  402c72:	b9 05 00 00 00       	mov    $0x5,%ecx
  402c77:	48 89 de             	mov    %rbx,%rsi
  402c7a:	f3 a6                	repz cmpsb %es:(%rdi),%ds:(%rsi)
  402c7c:	0f 97 c0             	seta   %al
  402c7f:	0f 92 c1             	setb   %cl
  402c82:	29 c8                	sub    %ecx,%eax
  402c84:	0f be c0             	movsbl %al,%eax
  402c87:	85 c0                	test   %eax,%eax
  402c89:	74 2e                	je     402cb9 <submitr+0x746>
  402c8b:	85 d2                	test   %edx,%edx
  402c8d:	75 13                	jne    402ca2 <submitr+0x72f>
  402c8f:	0f b6 43 01          	movzbl 0x1(%rbx),%eax
  402c93:	ba 4b 00 00 00       	mov    $0x4b,%edx
  402c98:	29 c2                	sub    %eax,%edx
  402c9a:	75 06                	jne    402ca2 <submitr+0x72f>
  402c9c:	0f b6 53 02          	movzbl 0x2(%rbx),%edx
  402ca0:	f7 da                	neg    %edx
  402ca2:	85 d2                	test   %edx,%edx
  402ca4:	75 0e                	jne    402cb4 <submitr+0x741>
  402ca6:	b8 00 00 00 00       	mov    $0x0,%eax
  402cab:	eb 0c                	jmp    402cb9 <submitr+0x746>
  402cad:	b8 00 00 00 00       	mov    $0x0,%eax
  402cb2:	eb 05                	jmp    402cb9 <submitr+0x746>
  402cb4:	b8 ff ff ff ff       	mov    $0xffffffff,%eax
  402cb9:	48 8b 9c 24 48 a0 00 	mov    0xa048(%rsp),%rbx
  402cc0:	00 
  402cc1:	64 48 33 1c 25 28 00 	xor    %fs:0x28,%rbx
  402cc8:	00 00 
  402cca:	74 05                	je     402cd1 <submitr+0x75e>
  402ccc:	e8 1f e0 ff ff       	callq  400cf0 <__stack_chk_fail@plt>
  402cd1:	48 81 c4 58 a0 00 00 	add    $0xa058,%rsp
  402cd8:	5b                   	pop    %rbx
  402cd9:	5d                   	pop    %rbp
  402cda:	41 5c                	pop    %r12
  402cdc:	41 5d                	pop    %r13
  402cde:	41 5e                	pop    %r14
  402ce0:	41 5f                	pop    %r15
  402ce2:	c3                   	retq   

0000000000402ce3 <init_timeout>:
  402ce3:	85 ff                	test   %edi,%edi
  402ce5:	74 23                	je     402d0a <init_timeout+0x27>
  402ce7:	53                   	push   %rbx
  402ce8:	89 fb                	mov    %edi,%ebx
  402cea:	85 ff                	test   %edi,%edi
  402cec:	79 05                	jns    402cf3 <init_timeout+0x10>
  402cee:	bb 00 00 00 00       	mov    $0x0,%ebx
  402cf3:	be a7 22 40 00       	mov    $0x4022a7,%esi
  402cf8:	bf 0e 00 00 00       	mov    $0xe,%edi
  402cfd:	e8 5e e0 ff ff       	callq  400d60 <signal@plt>
  402d02:	89 df                	mov    %ebx,%edi
  402d04:	e8 17 e0 ff ff       	callq  400d20 <alarm@plt>
  402d09:	5b                   	pop    %rbx
  402d0a:	f3 c3                	repz retq 

0000000000402d0c <init_driver>:
  402d0c:	55                   	push   %rbp
  402d0d:	53                   	push   %rbx
  402d0e:	48 83 ec 28          	sub    $0x28,%rsp
  402d12:	48 89 fd             	mov    %rdi,%rbp
  402d15:	64 48 8b 04 25 28 00 	mov    %fs:0x28,%rax
  402d1c:	00 00 
  402d1e:	48 89 44 24 18       	mov    %rax,0x18(%rsp)
  402d23:	31 c0                	xor    %eax,%eax
  402d25:	be 01 00 00 00       	mov    $0x1,%esi
  402d2a:	bf 0d 00 00 00       	mov    $0xd,%edi
  402d2f:	e8 2c e0 ff ff       	callq  400d60 <signal@plt>
  402d34:	be 01 00 00 00       	mov    $0x1,%esi
  402d39:	bf 1d 00 00 00       	mov    $0x1d,%edi
  402d3e:	e8 1d e0 ff ff       	callq  400d60 <signal@plt>
  402d43:	be 01 00 00 00       	mov    $0x1,%esi
  402d48:	bf 1d 00 00 00       	mov    $0x1d,%edi
  402d4d:	e8 0e e0 ff ff       	callq  400d60 <signal@plt>
  402d52:	ba 00 00 00 00       	mov    $0x0,%edx
  402d57:	be 01 00 00 00       	mov    $0x1,%esi
  402d5c:	bf 02 00 00 00       	mov    $0x2,%edi
  402d61:	e8 2a e1 ff ff       	callq  400e90 <socket@plt>
  402d66:	85 c0                	test   %eax,%eax
  402d68:	79 4f                	jns    402db9 <init_driver+0xad>
  402d6a:	48 b8 45 72 72 6f 72 	movabs $0x43203a726f727245,%rax
  402d71:	3a 20 43 
  402d74:	48 89 45 00          	mov    %rax,0x0(%rbp)
  402d78:	48 b8 6c 69 65 6e 74 	movabs $0x6e7520746e65696c,%rax
  402d7f:	20 75 6e 
  402d82:	48 89 45 08          	mov    %rax,0x8(%rbp)
  402d86:	48 b8 61 62 6c 65 20 	movabs $0x206f7420656c6261,%rax
  402d8d:	74 6f 20 
  402d90:	48 89 45 10          	mov    %rax,0x10(%rbp)
  402d94:	48 b8 63 72 65 61 74 	movabs $0x7320657461657263,%rax
  402d9b:	65 20 73 
  402d9e:	48 89 45 18          	mov    %rax,0x18(%rbp)
  402da2:	c7 45 20 6f 63 6b 65 	movl   $0x656b636f,0x20(%rbp)
  402da9:	66 c7 45 24 74 00    	movw   $0x74,0x24(%rbp)
  402daf:	b8 ff ff ff ff       	mov    $0xffffffff,%eax
  402db4:	e9 2a 01 00 00       	jmpq   402ee3 <init_driver+0x1d7>
  402db9:	89 c3                	mov    %eax,%ebx
  402dbb:	bf 5c 38 40 00       	mov    $0x40385c,%edi
  402dc0:	e8 ab df ff ff       	callq  400d70 <gethostbyname@plt>
  402dc5:	48 85 c0             	test   %rax,%rax
  402dc8:	75 68                	jne    402e32 <init_driver+0x126>
  402dca:	48 b8 45 72 72 6f 72 	movabs $0x44203a726f727245,%rax
  402dd1:	3a 20 44 
  402dd4:	48 89 45 00          	mov    %rax,0x0(%rbp)
  402dd8:	48 b8 4e 53 20 69 73 	movabs $0x6e7520736920534e,%rax
  402ddf:	20 75 6e 
  402de2:	48 89 45 08          	mov    %rax,0x8(%rbp)
  402de6:	48 b8 61 62 6c 65 20 	movabs $0x206f7420656c6261,%rax
  402ded:	74 6f 20 
  402df0:	48 89 45 10          	mov    %rax,0x10(%rbp)
  402df4:	48 b8 72 65 73 6f 6c 	movabs $0x2065766c6f736572,%rax
  402dfb:	76 65 20 
  402dfe:	48 89 45 18          	mov    %rax,0x18(%rbp)
  402e02:	48 b8 73 65 72 76 65 	movabs $0x6120726576726573,%rax
  402e09:	72 20 61 
  402e0c:	48 89 45 20          	mov    %rax,0x20(%rbp)
  402e10:	c7 45 28 64 64 72 65 	movl   $0x65726464,0x28(%rbp)
  402e17:	66 c7 45 2c 73 73    	movw   $0x7373,0x2c(%rbp)
  402e1d:	c6 45 2e 00          	movb   $0x0,0x2e(%rbp)
  402e21:	89 df                	mov    %ebx,%edi
  402e23:	e8 08 df ff ff       	callq  400d30 <close@plt>
  402e28:	b8 ff ff ff ff       	mov    $0xffffffff,%eax
  402e2d:	e9 b1 00 00 00       	jmpq   402ee3 <init_driver+0x1d7>
  402e32:	48 c7 04 24 00 00 00 	movq   $0x0,(%rsp)
  402e39:	00 
  402e3a:	48 c7 44 24 08 00 00 	movq   $0x0,0x8(%rsp)
  402e41:	00 00 
  402e43:	66 c7 04 24 02 00    	movw   $0x2,(%rsp)
  402e49:	48 63 50 14          	movslq 0x14(%rax),%rdx
  402e4d:	48 8b 40 18          	mov    0x18(%rax),%rax
  402e51:	48 8b 30             	mov    (%rax),%rsi
  402e54:	48 8d 7c 24 04       	lea    0x4(%rsp),%rdi
  402e59:	b9 0c 00 00 00       	mov    $0xc,%ecx
  402e5e:	e8 1d df ff ff       	callq  400d80 <__memmove_chk@plt>
  402e63:	66 c7 44 24 02 60 82 	movw   $0x8260,0x2(%rsp)
  402e6a:	ba 10 00 00 00       	mov    $0x10,%edx
  402e6f:	48 89 e6             	mov    %rsp,%rsi
  402e72:	89 df                	mov    %ebx,%edi
  402e74:	e8 e7 df ff ff       	callq  400e60 <connect@plt>
  402e79:	85 c0                	test   %eax,%eax
  402e7b:	79 50                	jns    402ecd <init_driver+0x1c1>
  402e7d:	48 b8 45 72 72 6f 72 	movabs $0x55203a726f727245,%rax
  402e84:	3a 20 55 
  402e87:	48 89 45 00          	mov    %rax,0x0(%rbp)
  402e8b:	48 b8 6e 61 62 6c 65 	movabs $0x6f7420656c62616e,%rax
  402e92:	20 74 6f 
  402e95:	48 89 45 08          	mov    %rax,0x8(%rbp)
  402e99:	48 b8 20 63 6f 6e 6e 	movabs $0x7463656e6e6f6320,%rax
  402ea0:	65 63 74 
  402ea3:	48 89 45 10          	mov    %rax,0x10(%rbp)
  402ea7:	48 b8 20 74 6f 20 73 	movabs $0x76726573206f7420,%rax
  402eae:	65 72 76 
  402eb1:	48 89 45 18          	mov    %rax,0x18(%rbp)
  402eb5:	66 c7 45 20 65 72    	movw   $0x7265,0x20(%rbp)
  402ebb:	c6 45 22 00          	movb   $0x0,0x22(%rbp)
  402ebf:	89 df                	mov    %ebx,%edi
  402ec1:	e8 6a de ff ff       	callq  400d30 <close@plt>
  402ec6:	b8 ff ff ff ff       	mov    $0xffffffff,%eax
  402ecb:	eb 16                	jmp    402ee3 <init_driver+0x1d7>
  402ecd:	89 df                	mov    %ebx,%edi
  402ecf:	e8 5c de ff ff       	callq  400d30 <close@plt>
  402ed4:	66 c7 45 00 4f 4b    	movw   $0x4b4f,0x0(%rbp)
  402eda:	c6 45 02 00          	movb   $0x0,0x2(%rbp)
  402ede:	b8 00 00 00 00       	mov    $0x0,%eax
  402ee3:	48 8b 4c 24 18       	mov    0x18(%rsp),%rcx
  402ee8:	64 48 33 0c 25 28 00 	xor    %fs:0x28,%rcx
  402eef:	00 00 
  402ef1:	74 05                	je     402ef8 <init_driver+0x1ec>
  402ef3:	e8 f8 dd ff ff       	callq  400cf0 <__stack_chk_fail@plt>
  402ef8:	48 83 c4 28          	add    $0x28,%rsp
  402efc:	5b                   	pop    %rbx
  402efd:	5d                   	pop    %rbp
  402efe:	c3                   	retq   

0000000000402eff <driver_post>:
  402eff:	53                   	push   %rbx
  402f00:	4c 89 cb             	mov    %r9,%rbx
  402f03:	45 85 c0             	test   %r8d,%r8d
  402f06:	74 27                	je     402f2f <driver_post+0x30>
  402f08:	48 89 ca             	mov    %rcx,%rdx
  402f0b:	be 75 48 40 00       	mov    $0x404875,%esi
  402f10:	bf 01 00 00 00       	mov    $0x1,%edi
  402f15:	b8 00 00 00 00       	mov    $0x0,%eax
  402f1a:	e8 e1 de ff ff       	callq  400e00 <__printf_chk@plt>
  402f1f:	66 c7 03 4f 4b       	movw   $0x4b4f,(%rbx)
  402f24:	c6 43 02 00          	movb   $0x0,0x2(%rbx)
  402f28:	b8 00 00 00 00       	mov    $0x0,%eax
  402f2d:	eb 3f                	jmp    402f6e <driver_post+0x6f>
  402f2f:	48 85 ff             	test   %rdi,%rdi
  402f32:	74 2c                	je     402f60 <driver_post+0x61>
  402f34:	80 3f 00             	cmpb   $0x0,(%rdi)
  402f37:	74 27                	je     402f60 <driver_post+0x61>
  402f39:	48 83 ec 08          	sub    $0x8,%rsp
  402f3d:	41 51                	push   %r9
  402f3f:	49 89 c9             	mov    %rcx,%r9
  402f42:	49 89 d0             	mov    %rdx,%r8
  402f45:	48 89 f9             	mov    %rdi,%rcx
  402f48:	48 89 f2             	mov    %rsi,%rdx
  402f4b:	be 82 60 00 00       	mov    $0x6082,%esi
  402f50:	bf 5c 38 40 00       	mov    $0x40385c,%edi
  402f55:	e8 19 f6 ff ff       	callq  402573 <submitr>
  402f5a:	48 83 c4 10          	add    $0x10,%rsp
  402f5e:	eb 0e                	jmp    402f6e <driver_post+0x6f>
  402f60:	66 c7 03 4f 4b       	movw   $0x4b4f,(%rbx)
  402f65:	c6 43 02 00          	movb   $0x0,0x2(%rbx)
  402f69:	b8 00 00 00 00       	mov    $0x0,%eax
  402f6e:	5b                   	pop    %rbx
  402f6f:	c3                   	retq   

0000000000402f70 <check>:
  402f70:	89 f8                	mov    %edi,%eax
  402f72:	c1 e8 1c             	shr    $0x1c,%eax
  402f75:	85 c0                	test   %eax,%eax
  402f77:	74 1d                	je     402f96 <check+0x26>
  402f79:	b9 00 00 00 00       	mov    $0x0,%ecx
  402f7e:	eb 0b                	jmp    402f8b <check+0x1b>
  402f80:	89 f8                	mov    %edi,%eax
  402f82:	d3 e8                	shr    %cl,%eax
  402f84:	3c 0a                	cmp    $0xa,%al
  402f86:	74 14                	je     402f9c <check+0x2c>
  402f88:	83 c1 08             	add    $0x8,%ecx
  402f8b:	83 f9 1f             	cmp    $0x1f,%ecx
  402f8e:	7e f0                	jle    402f80 <check+0x10>
  402f90:	b8 01 00 00 00       	mov    $0x1,%eax
  402f95:	c3                   	retq   
  402f96:	b8 00 00 00 00       	mov    $0x0,%eax
  402f9b:	c3                   	retq   
  402f9c:	b8 00 00 00 00       	mov    $0x0,%eax
  402fa1:	c3                   	retq   

0000000000402fa2 <gencookie>:
  402fa2:	53                   	push   %rbx
  402fa3:	83 c7 01             	add    $0x1,%edi
  402fa6:	e8 f5 dc ff ff       	callq  400ca0 <srandom@plt>
  402fab:	e8 10 de ff ff       	callq  400dc0 <random@plt>
  402fb0:	89 c3                	mov    %eax,%ebx
  402fb2:	89 c7                	mov    %eax,%edi
  402fb4:	e8 b7 ff ff ff       	callq  402f70 <check>
  402fb9:	85 c0                	test   %eax,%eax
  402fbb:	74 ee                	je     402fab <gencookie+0x9>
  402fbd:	89 d8                	mov    %ebx,%eax
  402fbf:	5b                   	pop    %rbx
  402fc0:	c3                   	retq   
  402fc1:	66 2e 0f 1f 84 00 00 	nopw   %cs:0x0(%rax,%rax,1)
  402fc8:	00 00 00 
  402fcb:	0f 1f 44 00 00       	nopl   0x0(%rax,%rax,1)

0000000000402fd0 <__libc_csu_init>:
  402fd0:	41 57                	push   %r15
  402fd2:	41 56                	push   %r14
  402fd4:	41 89 ff             	mov    %edi,%r15d
  402fd7:	41 55                	push   %r13
  402fd9:	41 54                	push   %r12
  402fdb:	4c 8d 25 2e 2e 20 00 	lea    0x202e2e(%rip),%r12        # 605e10 <__frame_dummy_init_array_entry>
  402fe2:	55                   	push   %rbp
  402fe3:	48 8d 2d 2e 2e 20 00 	lea    0x202e2e(%rip),%rbp        # 605e18 <__init_array_end>
  402fea:	53                   	push   %rbx
  402feb:	49 89 f6             	mov    %rsi,%r14
  402fee:	49 89 d5             	mov    %rdx,%r13
  402ff1:	4c 29 e5             	sub    %r12,%rbp
  402ff4:	48 83 ec 08          	sub    $0x8,%rsp
  402ff8:	48 c1 fd 03          	sar    $0x3,%rbp
  402ffc:	e8 47 dc ff ff       	callq  400c48 <_init>
  403001:	48 85 ed             	test   %rbp,%rbp
  403004:	74 20                	je     403026 <__libc_csu_init+0x56>
  403006:	31 db                	xor    %ebx,%ebx
  403008:	0f 1f 84 00 00 00 00 	nopl   0x0(%rax,%rax,1)
  40300f:	00 
  403010:	4c 89 ea             	mov    %r13,%rdx
  403013:	4c 89 f6             	mov    %r14,%rsi
  403016:	44 89 ff             	mov    %r15d,%edi
  403019:	41 ff 14 dc          	callq  *(%r12,%rbx,8)
  40301d:	48 83 c3 01          	add    $0x1,%rbx
  403021:	48 39 eb             	cmp    %rbp,%rbx
  403024:	75 ea                	jne    403010 <__libc_csu_init+0x40>
  403026:	48 83 c4 08          	add    $0x8,%rsp
  40302a:	5b                   	pop    %rbx
  40302b:	5d                   	pop    %rbp
  40302c:	41 5c                	pop    %r12
  40302e:	41 5d                	pop    %r13
  403030:	41 5e                	pop    %r14
  403032:	41 5f                	pop    %r15
  403034:	c3                   	retq   
  403035:	90                   	nop
  403036:	66 2e 0f 1f 84 00 00 	nopw   %cs:0x0(%rax,%rax,1)
  40303d:	00 00 00 

0000000000403040 <__libc_csu_fini>:
  403040:	f3 c3                	repz retq 

Disassembly of section .fini:

0000000000403044 <_fini>:
  403044:	48 83 ec 08          	sub    $0x8,%rsp
  403048:	48 83 c4 08          	add    $0x8,%rsp
  40304c:	c3                   	retq   
